
04TP_E02.elf:     file format elf32-littlearm

Sections:
Idx Name          Size      VMA       LMA       File off  Algn
  0 .isr_vector   000001ac  08000000  08000000  00010000  2**0
                  CONTENTS, ALLOC, LOAD, READONLY, DATA
  1 .text         0000532c  080001b0  080001b0  000101b0  2**4
                  CONTENTS, ALLOC, LOAD, READONLY, CODE
  2 .rodata       00000288  080054e0  080054e0  000154e0  2**3
                  CONTENTS, ALLOC, LOAD, READONLY, DATA
  3 .ARM          00000008  08005768  08005768  00015768  2**2
                  CONTENTS, ALLOC, LOAD, READONLY, DATA
  4 .init_array   00000004  08005770  08005770  00015770  2**2
                  CONTENTS, ALLOC, LOAD, DATA
  5 .fini_array   00000004  08005774  08005774  00015774  2**2
                  CONTENTS, ALLOC, LOAD, DATA
  6 .data         0000070c  20000000  08005778  00020000  2**2
                  CONTENTS, ALLOC, LOAD, DATA
  7 .ccmram       00000000  10000000  10000000  0002070c  2**0
                  CONTENTS
  8 .bss          00000090  2000070c  2000070c  0002070c  2**2
                  ALLOC
  9 ._user_heap_stack 00000400  2000079c  2000079c  0002070c  2**0
                  ALLOC
 10 .ARM.attributes 00000030  00000000  00000000  0002070c  2**0
                  CONTENTS, READONLY
 11 .debug_info   0000636d  00000000  00000000  0002073c  2**0
                  CONTENTS, READONLY, DEBUGGING
 12 .debug_abbrev 00000c30  00000000  00000000  00026aa9  2**0
                  CONTENTS, READONLY, DEBUGGING
 13 .debug_aranges 00000738  00000000  00000000  000276e0  2**3
                  CONTENTS, READONLY, DEBUGGING
 14 .debug_ranges 000006c0  00000000  00000000  00027e18  2**3
                  CONTENTS, READONLY, DEBUGGING
 15 .debug_line   00002550  00000000  00000000  000284d8  2**0
                  CONTENTS, READONLY, DEBUGGING
 16 .debug_str    0000280f  00000000  00000000  0002aa28  2**0
                  CONTENTS, READONLY, DEBUGGING
 17 .comment      0000007c  00000000  00000000  0002d237  2**0
                  CONTENTS, READONLY
 18 .debug_frame  00002a20  00000000  00000000  0002d2b4  2**2
                  CONTENTS, READONLY, DEBUGGING

Disassembly of section .text:

080001b0 <__do_global_dtors_aux>:
 80001b0:	b510      	push	{r4, lr}
 80001b2:	4c05      	ldr	r4, [pc, #20]	; (80001c8 <__do_global_dtors_aux+0x18>)
 80001b4:	7823      	ldrb	r3, [r4, #0]
 80001b6:	b933      	cbnz	r3, 80001c6 <__do_global_dtors_aux+0x16>
 80001b8:	4b04      	ldr	r3, [pc, #16]	; (80001cc <__do_global_dtors_aux+0x1c>)
 80001ba:	b113      	cbz	r3, 80001c2 <__do_global_dtors_aux+0x12>
 80001bc:	4804      	ldr	r0, [pc, #16]	; (80001d0 <__do_global_dtors_aux+0x20>)
 80001be:	f3af 8000 	nop.w
 80001c2:	2301      	movs	r3, #1
 80001c4:	7023      	strb	r3, [r4, #0]
 80001c6:	bd10      	pop	{r4, pc}
 80001c8:	2000070c 	.word	0x2000070c
 80001cc:	00000000 	.word	0x00000000
 80001d0:	080054c4 	.word	0x080054c4

080001d4 <frame_dummy>:
 80001d4:	b508      	push	{r3, lr}
 80001d6:	4b03      	ldr	r3, [pc, #12]	; (80001e4 <frame_dummy+0x10>)
 80001d8:	b11b      	cbz	r3, 80001e2 <frame_dummy+0xe>
 80001da:	4903      	ldr	r1, [pc, #12]	; (80001e8 <frame_dummy+0x14>)
 80001dc:	4803      	ldr	r0, [pc, #12]	; (80001ec <frame_dummy+0x18>)
 80001de:	f3af 8000 	nop.w
 80001e2:	bd08      	pop	{r3, pc}
 80001e4:	00000000 	.word	0x00000000
 80001e8:	20000710 	.word	0x20000710
 80001ec:	080054c4 	.word	0x080054c4

080001f0 <memchr>:
 80001f0:	f001 01ff 	and.w	r1, r1, #255	; 0xff
 80001f4:	2a10      	cmp	r2, #16
 80001f6:	db2b      	blt.n	8000250 <memchr+0x60>
 80001f8:	f010 0f07 	tst.w	r0, #7
 80001fc:	d008      	beq.n	8000210 <memchr+0x20>
 80001fe:	f810 3b01 	ldrb.w	r3, [r0], #1
 8000202:	3a01      	subs	r2, #1
 8000204:	428b      	cmp	r3, r1
 8000206:	d02d      	beq.n	8000264 <memchr+0x74>
 8000208:	f010 0f07 	tst.w	r0, #7
 800020c:	b342      	cbz	r2, 8000260 <memchr+0x70>
 800020e:	d1f6      	bne.n	80001fe <memchr+0xe>
 8000210:	b4f0      	push	{r4, r5, r6, r7}
 8000212:	ea41 2101 	orr.w	r1, r1, r1, lsl #8
 8000216:	ea41 4101 	orr.w	r1, r1, r1, lsl #16
 800021a:	f022 0407 	bic.w	r4, r2, #7
 800021e:	f07f 0700 	mvns.w	r7, #0
 8000222:	2300      	movs	r3, #0
 8000224:	e8f0 5602 	ldrd	r5, r6, [r0], #8
 8000228:	3c08      	subs	r4, #8
 800022a:	ea85 0501 	eor.w	r5, r5, r1
 800022e:	ea86 0601 	eor.w	r6, r6, r1
 8000232:	fa85 f547 	uadd8	r5, r5, r7
 8000236:	faa3 f587 	sel	r5, r3, r7
 800023a:	fa86 f647 	uadd8	r6, r6, r7
 800023e:	faa5 f687 	sel	r6, r5, r7
 8000242:	b98e      	cbnz	r6, 8000268 <memchr+0x78>
 8000244:	d1ee      	bne.n	8000224 <memchr+0x34>
 8000246:	bcf0      	pop	{r4, r5, r6, r7}
 8000248:	f001 01ff 	and.w	r1, r1, #255	; 0xff
 800024c:	f002 0207 	and.w	r2, r2, #7
 8000250:	b132      	cbz	r2, 8000260 <memchr+0x70>
 8000252:	f810 3b01 	ldrb.w	r3, [r0], #1
 8000256:	3a01      	subs	r2, #1
 8000258:	ea83 0301 	eor.w	r3, r3, r1
 800025c:	b113      	cbz	r3, 8000264 <memchr+0x74>
 800025e:	d1f8      	bne.n	8000252 <memchr+0x62>
 8000260:	2000      	movs	r0, #0
 8000262:	4770      	bx	lr
 8000264:	3801      	subs	r0, #1
 8000266:	4770      	bx	lr
 8000268:	2d00      	cmp	r5, #0
 800026a:	bf06      	itte	eq
 800026c:	4635      	moveq	r5, r6
 800026e:	3803      	subeq	r0, #3
 8000270:	3807      	subne	r0, #7
 8000272:	f015 0f01 	tst.w	r5, #1
 8000276:	d107      	bne.n	8000288 <memchr+0x98>
 8000278:	3001      	adds	r0, #1
 800027a:	f415 7f80 	tst.w	r5, #256	; 0x100
 800027e:	bf02      	ittt	eq
 8000280:	3001      	addeq	r0, #1
 8000282:	f415 3fc0 	tsteq.w	r5, #98304	; 0x18000
 8000286:	3001      	addeq	r0, #1
 8000288:	bcf0      	pop	{r4, r5, r6, r7}
 800028a:	3801      	subs	r0, #1
 800028c:	4770      	bx	lr
 800028e:	bf00      	nop

08000290 <strlen>:
 8000290:	4603      	mov	r3, r0
 8000292:	f813 2b01 	ldrb.w	r2, [r3], #1
 8000296:	2a00      	cmp	r2, #0
 8000298:	d1fb      	bne.n	8000292 <strlen+0x2>
 800029a:	1a18      	subs	r0, r3, r0
 800029c:	3801      	subs	r0, #1
 800029e:	4770      	bx	lr

080002a0 <__aeabi_drsub>:
 80002a0:	f081 4100 	eor.w	r1, r1, #2147483648	; 0x80000000
 80002a4:	e002      	b.n	80002ac <__adddf3>
 80002a6:	bf00      	nop

080002a8 <__aeabi_dsub>:
 80002a8:	f083 4300 	eor.w	r3, r3, #2147483648	; 0x80000000

080002ac <__adddf3>:
 80002ac:	b530      	push	{r4, r5, lr}
 80002ae:	ea4f 0441 	mov.w	r4, r1, lsl #1
 80002b2:	ea4f 0543 	mov.w	r5, r3, lsl #1
 80002b6:	ea94 0f05 	teq	r4, r5
 80002ba:	bf08      	it	eq
 80002bc:	ea90 0f02 	teqeq	r0, r2
 80002c0:	bf1f      	itttt	ne
 80002c2:	ea54 0c00 	orrsne.w	ip, r4, r0
 80002c6:	ea55 0c02 	orrsne.w	ip, r5, r2
 80002ca:	ea7f 5c64 	mvnsne.w	ip, r4, asr #21
 80002ce:	ea7f 5c65 	mvnsne.w	ip, r5, asr #21
 80002d2:	f000 80e2 	beq.w	800049a <__adddf3+0x1ee>
 80002d6:	ea4f 5454 	mov.w	r4, r4, lsr #21
 80002da:	ebd4 5555 	rsbs	r5, r4, r5, lsr #21
 80002de:	bfb8      	it	lt
 80002e0:	426d      	neglt	r5, r5
 80002e2:	dd0c      	ble.n	80002fe <__adddf3+0x52>
 80002e4:	442c      	add	r4, r5
 80002e6:	ea80 0202 	eor.w	r2, r0, r2
 80002ea:	ea81 0303 	eor.w	r3, r1, r3
 80002ee:	ea82 0000 	eor.w	r0, r2, r0
 80002f2:	ea83 0101 	eor.w	r1, r3, r1
 80002f6:	ea80 0202 	eor.w	r2, r0, r2
 80002fa:	ea81 0303 	eor.w	r3, r1, r3
 80002fe:	2d36      	cmp	r5, #54	; 0x36
 8000300:	bf88      	it	hi
 8000302:	bd30      	pophi	{r4, r5, pc}
 8000304:	f011 4f00 	tst.w	r1, #2147483648	; 0x80000000
 8000308:	ea4f 3101 	mov.w	r1, r1, lsl #12
 800030c:	f44f 1c80 	mov.w	ip, #1048576	; 0x100000
 8000310:	ea4c 3111 	orr.w	r1, ip, r1, lsr #12
 8000314:	d002      	beq.n	800031c <__adddf3+0x70>
 8000316:	4240      	negs	r0, r0
 8000318:	eb61 0141 	sbc.w	r1, r1, r1, lsl #1
 800031c:	f013 4f00 	tst.w	r3, #2147483648	; 0x80000000
 8000320:	ea4f 3303 	mov.w	r3, r3, lsl #12
 8000324:	ea4c 3313 	orr.w	r3, ip, r3, lsr #12
 8000328:	d002      	beq.n	8000330 <__adddf3+0x84>
 800032a:	4252      	negs	r2, r2
 800032c:	eb63 0343 	sbc.w	r3, r3, r3, lsl #1
 8000330:	ea94 0f05 	teq	r4, r5
 8000334:	f000 80a7 	beq.w	8000486 <__adddf3+0x1da>
 8000338:	f1a4 0401 	sub.w	r4, r4, #1
 800033c:	f1d5 0e20 	rsbs	lr, r5, #32
 8000340:	db0d      	blt.n	800035e <__adddf3+0xb2>
 8000342:	fa02 fc0e 	lsl.w	ip, r2, lr
 8000346:	fa22 f205 	lsr.w	r2, r2, r5
 800034a:	1880      	adds	r0, r0, r2
 800034c:	f141 0100 	adc.w	r1, r1, #0
 8000350:	fa03 f20e 	lsl.w	r2, r3, lr
 8000354:	1880      	adds	r0, r0, r2
 8000356:	fa43 f305 	asr.w	r3, r3, r5
 800035a:	4159      	adcs	r1, r3
 800035c:	e00e      	b.n	800037c <__adddf3+0xd0>
 800035e:	f1a5 0520 	sub.w	r5, r5, #32
 8000362:	f10e 0e20 	add.w	lr, lr, #32
 8000366:	2a01      	cmp	r2, #1
 8000368:	fa03 fc0e 	lsl.w	ip, r3, lr
 800036c:	bf28      	it	cs
 800036e:	f04c 0c02 	orrcs.w	ip, ip, #2
 8000372:	fa43 f305 	asr.w	r3, r3, r5
 8000376:	18c0      	adds	r0, r0, r3
 8000378:	eb51 71e3 	adcs.w	r1, r1, r3, asr #31
 800037c:	f001 4500 	and.w	r5, r1, #2147483648	; 0x80000000
 8000380:	d507      	bpl.n	8000392 <__adddf3+0xe6>
 8000382:	f04f 0e00 	mov.w	lr, #0
 8000386:	f1dc 0c00 	rsbs	ip, ip, #0
 800038a:	eb7e 0000 	sbcs.w	r0, lr, r0
 800038e:	eb6e 0101 	sbc.w	r1, lr, r1
 8000392:	f5b1 1f80 	cmp.w	r1, #1048576	; 0x100000
 8000396:	d31b      	bcc.n	80003d0 <__adddf3+0x124>
 8000398:	f5b1 1f00 	cmp.w	r1, #2097152	; 0x200000
 800039c:	d30c      	bcc.n	80003b8 <__adddf3+0x10c>
 800039e:	0849      	lsrs	r1, r1, #1
 80003a0:	ea5f 0030 	movs.w	r0, r0, rrx
 80003a4:	ea4f 0c3c 	mov.w	ip, ip, rrx
 80003a8:	f104 0401 	add.w	r4, r4, #1
 80003ac:	ea4f 5244 	mov.w	r2, r4, lsl #21
 80003b0:	f512 0f80 	cmn.w	r2, #4194304	; 0x400000
 80003b4:	f080 809a 	bcs.w	80004ec <__adddf3+0x240>
 80003b8:	f1bc 4f00 	cmp.w	ip, #2147483648	; 0x80000000
 80003bc:	bf08      	it	eq
 80003be:	ea5f 0c50 	movseq.w	ip, r0, lsr #1
 80003c2:	f150 0000 	adcs.w	r0, r0, #0
 80003c6:	eb41 5104 	adc.w	r1, r1, r4, lsl #20
 80003ca:	ea41 0105 	orr.w	r1, r1, r5
 80003ce:	bd30      	pop	{r4, r5, pc}
 80003d0:	ea5f 0c4c 	movs.w	ip, ip, lsl #1
 80003d4:	4140      	adcs	r0, r0
 80003d6:	eb41 0101 	adc.w	r1, r1, r1
 80003da:	f411 1f80 	tst.w	r1, #1048576	; 0x100000
 80003de:	f1a4 0401 	sub.w	r4, r4, #1
 80003e2:	d1e9      	bne.n	80003b8 <__adddf3+0x10c>
 80003e4:	f091 0f00 	teq	r1, #0
 80003e8:	bf04      	itt	eq
 80003ea:	4601      	moveq	r1, r0
 80003ec:	2000      	moveq	r0, #0
 80003ee:	fab1 f381 	clz	r3, r1
 80003f2:	bf08      	it	eq
 80003f4:	3320      	addeq	r3, #32
 80003f6:	f1a3 030b 	sub.w	r3, r3, #11
 80003fa:	f1b3 0220 	subs.w	r2, r3, #32
 80003fe:	da0c      	bge.n	800041a <__adddf3+0x16e>
 8000400:	320c      	adds	r2, #12
 8000402:	dd08      	ble.n	8000416 <__adddf3+0x16a>
 8000404:	f102 0c14 	add.w	ip, r2, #20
 8000408:	f1c2 020c 	rsb	r2, r2, #12
 800040c:	fa01 f00c 	lsl.w	r0, r1, ip
 8000410:	fa21 f102 	lsr.w	r1, r1, r2
 8000414:	e00c      	b.n	8000430 <__adddf3+0x184>
 8000416:	f102 0214 	add.w	r2, r2, #20
 800041a:	bfd8      	it	le
 800041c:	f1c2 0c20 	rsble	ip, r2, #32
 8000420:	fa01 f102 	lsl.w	r1, r1, r2
 8000424:	fa20 fc0c 	lsr.w	ip, r0, ip
 8000428:	bfdc      	itt	le
 800042a:	ea41 010c 	orrle.w	r1, r1, ip
 800042e:	4090      	lslle	r0, r2
 8000430:	1ae4      	subs	r4, r4, r3
 8000432:	bfa2      	ittt	ge
 8000434:	eb01 5104 	addge.w	r1, r1, r4, lsl #20
 8000438:	4329      	orrge	r1, r5
 800043a:	bd30      	popge	{r4, r5, pc}
 800043c:	ea6f 0404 	mvn.w	r4, r4
 8000440:	3c1f      	subs	r4, #31
 8000442:	da1c      	bge.n	800047e <__adddf3+0x1d2>
 8000444:	340c      	adds	r4, #12
 8000446:	dc0e      	bgt.n	8000466 <__adddf3+0x1ba>
 8000448:	f104 0414 	add.w	r4, r4, #20
 800044c:	f1c4 0220 	rsb	r2, r4, #32
 8000450:	fa20 f004 	lsr.w	r0, r0, r4
 8000454:	fa01 f302 	lsl.w	r3, r1, r2
 8000458:	ea40 0003 	orr.w	r0, r0, r3
 800045c:	fa21 f304 	lsr.w	r3, r1, r4
 8000460:	ea45 0103 	orr.w	r1, r5, r3
 8000464:	bd30      	pop	{r4, r5, pc}
 8000466:	f1c4 040c 	rsb	r4, r4, #12
 800046a:	f1c4 0220 	rsb	r2, r4, #32
 800046e:	fa20 f002 	lsr.w	r0, r0, r2
 8000472:	fa01 f304 	lsl.w	r3, r1, r4
 8000476:	ea40 0003 	orr.w	r0, r0, r3
 800047a:	4629      	mov	r1, r5
 800047c:	bd30      	pop	{r4, r5, pc}
 800047e:	fa21 f004 	lsr.w	r0, r1, r4
 8000482:	4629      	mov	r1, r5
 8000484:	bd30      	pop	{r4, r5, pc}
 8000486:	f094 0f00 	teq	r4, #0
 800048a:	f483 1380 	eor.w	r3, r3, #1048576	; 0x100000
 800048e:	bf06      	itte	eq
 8000490:	f481 1180 	eoreq.w	r1, r1, #1048576	; 0x100000
 8000494:	3401      	addeq	r4, #1
 8000496:	3d01      	subne	r5, #1
 8000498:	e74e      	b.n	8000338 <__adddf3+0x8c>
 800049a:	ea7f 5c64 	mvns.w	ip, r4, asr #21
 800049e:	bf18      	it	ne
 80004a0:	ea7f 5c65 	mvnsne.w	ip, r5, asr #21
 80004a4:	d029      	beq.n	80004fa <__adddf3+0x24e>
 80004a6:	ea94 0f05 	teq	r4, r5
 80004aa:	bf08      	it	eq
 80004ac:	ea90 0f02 	teqeq	r0, r2
 80004b0:	d005      	beq.n	80004be <__adddf3+0x212>
 80004b2:	ea54 0c00 	orrs.w	ip, r4, r0
 80004b6:	bf04      	itt	eq
 80004b8:	4619      	moveq	r1, r3
 80004ba:	4610      	moveq	r0, r2
 80004bc:	bd30      	pop	{r4, r5, pc}
 80004be:	ea91 0f03 	teq	r1, r3
 80004c2:	bf1e      	ittt	ne
 80004c4:	2100      	movne	r1, #0
 80004c6:	2000      	movne	r0, #0
 80004c8:	bd30      	popne	{r4, r5, pc}
 80004ca:	ea5f 5c54 	movs.w	ip, r4, lsr #21
 80004ce:	d105      	bne.n	80004dc <__adddf3+0x230>
 80004d0:	0040      	lsls	r0, r0, #1
 80004d2:	4149      	adcs	r1, r1
 80004d4:	bf28      	it	cs
 80004d6:	f041 4100 	orrcs.w	r1, r1, #2147483648	; 0x80000000
 80004da:	bd30      	pop	{r4, r5, pc}
 80004dc:	f514 0480 	adds.w	r4, r4, #4194304	; 0x400000
 80004e0:	bf3c      	itt	cc
 80004e2:	f501 1180 	addcc.w	r1, r1, #1048576	; 0x100000
 80004e6:	bd30      	popcc	{r4, r5, pc}
 80004e8:	f001 4500 	and.w	r5, r1, #2147483648	; 0x80000000
 80004ec:	f045 41fe 	orr.w	r1, r5, #2130706432	; 0x7f000000
 80004f0:	f441 0170 	orr.w	r1, r1, #15728640	; 0xf00000
 80004f4:	f04f 0000 	mov.w	r0, #0
 80004f8:	bd30      	pop	{r4, r5, pc}
 80004fa:	ea7f 5c64 	mvns.w	ip, r4, asr #21
 80004fe:	bf1a      	itte	ne
 8000500:	4619      	movne	r1, r3
 8000502:	4610      	movne	r0, r2
 8000504:	ea7f 5c65 	mvnseq.w	ip, r5, asr #21
 8000508:	bf1c      	itt	ne
 800050a:	460b      	movne	r3, r1
 800050c:	4602      	movne	r2, r0
 800050e:	ea50 3401 	orrs.w	r4, r0, r1, lsl #12
 8000512:	bf06      	itte	eq
 8000514:	ea52 3503 	orrseq.w	r5, r2, r3, lsl #12
 8000518:	ea91 0f03 	teqeq	r1, r3
 800051c:	f441 2100 	orrne.w	r1, r1, #524288	; 0x80000
 8000520:	bd30      	pop	{r4, r5, pc}
 8000522:	bf00      	nop

08000524 <__aeabi_ui2d>:
 8000524:	f090 0f00 	teq	r0, #0
 8000528:	bf04      	itt	eq
 800052a:	2100      	moveq	r1, #0
 800052c:	4770      	bxeq	lr
 800052e:	b530      	push	{r4, r5, lr}
 8000530:	f44f 6480 	mov.w	r4, #1024	; 0x400
 8000534:	f104 0432 	add.w	r4, r4, #50	; 0x32
 8000538:	f04f 0500 	mov.w	r5, #0
 800053c:	f04f 0100 	mov.w	r1, #0
 8000540:	e750      	b.n	80003e4 <__adddf3+0x138>
 8000542:	bf00      	nop

08000544 <__aeabi_i2d>:
 8000544:	f090 0f00 	teq	r0, #0
 8000548:	bf04      	itt	eq
 800054a:	2100      	moveq	r1, #0
 800054c:	4770      	bxeq	lr
 800054e:	b530      	push	{r4, r5, lr}
 8000550:	f44f 6480 	mov.w	r4, #1024	; 0x400
 8000554:	f104 0432 	add.w	r4, r4, #50	; 0x32
 8000558:	f010 4500 	ands.w	r5, r0, #2147483648	; 0x80000000
 800055c:	bf48      	it	mi
 800055e:	4240      	negmi	r0, r0
 8000560:	f04f 0100 	mov.w	r1, #0
 8000564:	e73e      	b.n	80003e4 <__adddf3+0x138>
 8000566:	bf00      	nop

08000568 <__aeabi_f2d>:
 8000568:	0042      	lsls	r2, r0, #1
 800056a:	ea4f 01e2 	mov.w	r1, r2, asr #3
 800056e:	ea4f 0131 	mov.w	r1, r1, rrx
 8000572:	ea4f 7002 	mov.w	r0, r2, lsl #28
 8000576:	bf1f      	itttt	ne
 8000578:	f012 437f 	andsne.w	r3, r2, #4278190080	; 0xff000000
 800057c:	f093 4f7f 	teqne	r3, #4278190080	; 0xff000000
 8000580:	f081 5160 	eorne.w	r1, r1, #939524096	; 0x38000000
 8000584:	4770      	bxne	lr
 8000586:	f092 0f00 	teq	r2, #0
 800058a:	bf14      	ite	ne
 800058c:	f093 4f7f 	teqne	r3, #4278190080	; 0xff000000
 8000590:	4770      	bxeq	lr
 8000592:	b530      	push	{r4, r5, lr}
 8000594:	f44f 7460 	mov.w	r4, #896	; 0x380
 8000598:	f001 4500 	and.w	r5, r1, #2147483648	; 0x80000000
 800059c:	f021 4100 	bic.w	r1, r1, #2147483648	; 0x80000000
 80005a0:	e720      	b.n	80003e4 <__adddf3+0x138>
 80005a2:	bf00      	nop

080005a4 <__aeabi_ul2d>:
 80005a4:	ea50 0201 	orrs.w	r2, r0, r1
 80005a8:	bf08      	it	eq
 80005aa:	4770      	bxeq	lr
 80005ac:	b530      	push	{r4, r5, lr}
 80005ae:	f04f 0500 	mov.w	r5, #0
 80005b2:	e00a      	b.n	80005ca <__aeabi_l2d+0x16>

080005b4 <__aeabi_l2d>:
 80005b4:	ea50 0201 	orrs.w	r2, r0, r1
 80005b8:	bf08      	it	eq
 80005ba:	4770      	bxeq	lr
 80005bc:	b530      	push	{r4, r5, lr}
 80005be:	f011 4500 	ands.w	r5, r1, #2147483648	; 0x80000000
 80005c2:	d502      	bpl.n	80005ca <__aeabi_l2d+0x16>
 80005c4:	4240      	negs	r0, r0
 80005c6:	eb61 0141 	sbc.w	r1, r1, r1, lsl #1
 80005ca:	f44f 6480 	mov.w	r4, #1024	; 0x400
 80005ce:	f104 0432 	add.w	r4, r4, #50	; 0x32
 80005d2:	ea5f 5c91 	movs.w	ip, r1, lsr #22
 80005d6:	f43f aedc 	beq.w	8000392 <__adddf3+0xe6>
 80005da:	f04f 0203 	mov.w	r2, #3
 80005de:	ea5f 0cdc 	movs.w	ip, ip, lsr #3
 80005e2:	bf18      	it	ne
 80005e4:	3203      	addne	r2, #3
 80005e6:	ea5f 0cdc 	movs.w	ip, ip, lsr #3
 80005ea:	bf18      	it	ne
 80005ec:	3203      	addne	r2, #3
 80005ee:	eb02 02dc 	add.w	r2, r2, ip, lsr #3
 80005f2:	f1c2 0320 	rsb	r3, r2, #32
 80005f6:	fa00 fc03 	lsl.w	ip, r0, r3
 80005fa:	fa20 f002 	lsr.w	r0, r0, r2
 80005fe:	fa01 fe03 	lsl.w	lr, r1, r3
 8000602:	ea40 000e 	orr.w	r0, r0, lr
 8000606:	fa21 f102 	lsr.w	r1, r1, r2
 800060a:	4414      	add	r4, r2
 800060c:	e6c1      	b.n	8000392 <__adddf3+0xe6>
 800060e:	bf00      	nop

08000610 <__aeabi_dmul>:
 8000610:	b570      	push	{r4, r5, r6, lr}
 8000612:	f04f 0cff 	mov.w	ip, #255	; 0xff
 8000616:	f44c 6ce0 	orr.w	ip, ip, #1792	; 0x700
 800061a:	ea1c 5411 	ands.w	r4, ip, r1, lsr #20
 800061e:	bf1d      	ittte	ne
 8000620:	ea1c 5513 	andsne.w	r5, ip, r3, lsr #20
 8000624:	ea94 0f0c 	teqne	r4, ip
 8000628:	ea95 0f0c 	teqne	r5, ip
 800062c:	f000 f8de 	bleq	80007ec <__aeabi_dmul+0x1dc>
 8000630:	442c      	add	r4, r5
 8000632:	ea81 0603 	eor.w	r6, r1, r3
 8000636:	ea21 514c 	bic.w	r1, r1, ip, lsl #21
 800063a:	ea23 534c 	bic.w	r3, r3, ip, lsl #21
 800063e:	ea50 3501 	orrs.w	r5, r0, r1, lsl #12
 8000642:	bf18      	it	ne
 8000644:	ea52 3503 	orrsne.w	r5, r2, r3, lsl #12
 8000648:	f441 1180 	orr.w	r1, r1, #1048576	; 0x100000
 800064c:	f443 1380 	orr.w	r3, r3, #1048576	; 0x100000
 8000650:	d038      	beq.n	80006c4 <__aeabi_dmul+0xb4>
 8000652:	fba0 ce02 	umull	ip, lr, r0, r2
 8000656:	f04f 0500 	mov.w	r5, #0
 800065a:	fbe1 e502 	umlal	lr, r5, r1, r2
 800065e:	f006 4200 	and.w	r2, r6, #2147483648	; 0x80000000
 8000662:	fbe0 e503 	umlal	lr, r5, r0, r3
 8000666:	f04f 0600 	mov.w	r6, #0
 800066a:	fbe1 5603 	umlal	r5, r6, r1, r3
 800066e:	f09c 0f00 	teq	ip, #0
 8000672:	bf18      	it	ne
 8000674:	f04e 0e01 	orrne.w	lr, lr, #1
 8000678:	f1a4 04ff 	sub.w	r4, r4, #255	; 0xff
 800067c:	f5b6 7f00 	cmp.w	r6, #512	; 0x200
 8000680:	f564 7440 	sbc.w	r4, r4, #768	; 0x300
 8000684:	d204      	bcs.n	8000690 <__aeabi_dmul+0x80>
 8000686:	ea5f 0e4e 	movs.w	lr, lr, lsl #1
 800068a:	416d      	adcs	r5, r5
 800068c:	eb46 0606 	adc.w	r6, r6, r6
 8000690:	ea42 21c6 	orr.w	r1, r2, r6, lsl #11
 8000694:	ea41 5155 	orr.w	r1, r1, r5, lsr #21
 8000698:	ea4f 20c5 	mov.w	r0, r5, lsl #11
 800069c:	ea40 505e 	orr.w	r0, r0, lr, lsr #21
 80006a0:	ea4f 2ece 	mov.w	lr, lr, lsl #11
 80006a4:	f1b4 0cfd 	subs.w	ip, r4, #253	; 0xfd
 80006a8:	bf88      	it	hi
 80006aa:	f5bc 6fe0 	cmphi.w	ip, #1792	; 0x700
 80006ae:	d81e      	bhi.n	80006ee <__aeabi_dmul+0xde>
 80006b0:	f1be 4f00 	cmp.w	lr, #2147483648	; 0x80000000
 80006b4:	bf08      	it	eq
 80006b6:	ea5f 0e50 	movseq.w	lr, r0, lsr #1
 80006ba:	f150 0000 	adcs.w	r0, r0, #0
 80006be:	eb41 5104 	adc.w	r1, r1, r4, lsl #20
 80006c2:	bd70      	pop	{r4, r5, r6, pc}
 80006c4:	f006 4600 	and.w	r6, r6, #2147483648	; 0x80000000
 80006c8:	ea46 0101 	orr.w	r1, r6, r1
 80006cc:	ea40 0002 	orr.w	r0, r0, r2
 80006d0:	ea81 0103 	eor.w	r1, r1, r3
 80006d4:	ebb4 045c 	subs.w	r4, r4, ip, lsr #1
 80006d8:	bfc2      	ittt	gt
 80006da:	ebd4 050c 	rsbsgt	r5, r4, ip
 80006de:	ea41 5104 	orrgt.w	r1, r1, r4, lsl #20
 80006e2:	bd70      	popgt	{r4, r5, r6, pc}
 80006e4:	f441 1180 	orr.w	r1, r1, #1048576	; 0x100000
 80006e8:	f04f 0e00 	mov.w	lr, #0
 80006ec:	3c01      	subs	r4, #1
 80006ee:	f300 80ab 	bgt.w	8000848 <__aeabi_dmul+0x238>
 80006f2:	f114 0f36 	cmn.w	r4, #54	; 0x36
 80006f6:	bfde      	ittt	le
 80006f8:	2000      	movle	r0, #0
 80006fa:	f001 4100 	andle.w	r1, r1, #2147483648	; 0x80000000
 80006fe:	bd70      	pople	{r4, r5, r6, pc}
 8000700:	f1c4 0400 	rsb	r4, r4, #0
 8000704:	3c20      	subs	r4, #32
 8000706:	da35      	bge.n	8000774 <__aeabi_dmul+0x164>
 8000708:	340c      	adds	r4, #12
 800070a:	dc1b      	bgt.n	8000744 <__aeabi_dmul+0x134>
 800070c:	f104 0414 	add.w	r4, r4, #20
 8000710:	f1c4 0520 	rsb	r5, r4, #32
 8000714:	fa00 f305 	lsl.w	r3, r0, r5
 8000718:	fa20 f004 	lsr.w	r0, r0, r4
 800071c:	fa01 f205 	lsl.w	r2, r1, r5
 8000720:	ea40 0002 	orr.w	r0, r0, r2
 8000724:	f001 4200 	and.w	r2, r1, #2147483648	; 0x80000000
 8000728:	f021 4100 	bic.w	r1, r1, #2147483648	; 0x80000000
 800072c:	eb10 70d3 	adds.w	r0, r0, r3, lsr #31
 8000730:	fa21 f604 	lsr.w	r6, r1, r4
 8000734:	eb42 0106 	adc.w	r1, r2, r6
 8000738:	ea5e 0e43 	orrs.w	lr, lr, r3, lsl #1
 800073c:	bf08      	it	eq
 800073e:	ea20 70d3 	biceq.w	r0, r0, r3, lsr #31
 8000742:	bd70      	pop	{r4, r5, r6, pc}
 8000744:	f1c4 040c 	rsb	r4, r4, #12
 8000748:	f1c4 0520 	rsb	r5, r4, #32
 800074c:	fa00 f304 	lsl.w	r3, r0, r4
 8000750:	fa20 f005 	lsr.w	r0, r0, r5
 8000754:	fa01 f204 	lsl.w	r2, r1, r4
 8000758:	ea40 0002 	orr.w	r0, r0, r2
 800075c:	f001 4100 	and.w	r1, r1, #2147483648	; 0x80000000
 8000760:	eb10 70d3 	adds.w	r0, r0, r3, lsr #31
 8000764:	f141 0100 	adc.w	r1, r1, #0
 8000768:	ea5e 0e43 	orrs.w	lr, lr, r3, lsl #1
 800076c:	bf08      	it	eq
 800076e:	ea20 70d3 	biceq.w	r0, r0, r3, lsr #31
 8000772:	bd70      	pop	{r4, r5, r6, pc}
 8000774:	f1c4 0520 	rsb	r5, r4, #32
 8000778:	fa00 f205 	lsl.w	r2, r0, r5
 800077c:	ea4e 0e02 	orr.w	lr, lr, r2
 8000780:	fa20 f304 	lsr.w	r3, r0, r4
 8000784:	fa01 f205 	lsl.w	r2, r1, r5
 8000788:	ea43 0302 	orr.w	r3, r3, r2
 800078c:	fa21 f004 	lsr.w	r0, r1, r4
 8000790:	f001 4100 	and.w	r1, r1, #2147483648	; 0x80000000
 8000794:	fa21 f204 	lsr.w	r2, r1, r4
 8000798:	ea20 0002 	bic.w	r0, r0, r2
 800079c:	eb00 70d3 	add.w	r0, r0, r3, lsr #31
 80007a0:	ea5e 0e43 	orrs.w	lr, lr, r3, lsl #1
 80007a4:	bf08      	it	eq
 80007a6:	ea20 70d3 	biceq.w	r0, r0, r3, lsr #31
 80007aa:	bd70      	pop	{r4, r5, r6, pc}
 80007ac:	f094 0f00 	teq	r4, #0
 80007b0:	d10f      	bne.n	80007d2 <__aeabi_dmul+0x1c2>
 80007b2:	f001 4600 	and.w	r6, r1, #2147483648	; 0x80000000
 80007b6:	0040      	lsls	r0, r0, #1
 80007b8:	eb41 0101 	adc.w	r1, r1, r1
 80007bc:	f411 1f80 	tst.w	r1, #1048576	; 0x100000
 80007c0:	bf08      	it	eq
 80007c2:	3c01      	subeq	r4, #1
 80007c4:	d0f7      	beq.n	80007b6 <__aeabi_dmul+0x1a6>
 80007c6:	ea41 0106 	orr.w	r1, r1, r6
 80007ca:	f095 0f00 	teq	r5, #0
 80007ce:	bf18      	it	ne
 80007d0:	4770      	bxne	lr
 80007d2:	f003 4600 	and.w	r6, r3, #2147483648	; 0x80000000
 80007d6:	0052      	lsls	r2, r2, #1
 80007d8:	eb43 0303 	adc.w	r3, r3, r3
 80007dc:	f413 1f80 	tst.w	r3, #1048576	; 0x100000
 80007e0:	bf08      	it	eq
 80007e2:	3d01      	subeq	r5, #1
 80007e4:	d0f7      	beq.n	80007d6 <__aeabi_dmul+0x1c6>
 80007e6:	ea43 0306 	orr.w	r3, r3, r6
 80007ea:	4770      	bx	lr
 80007ec:	ea94 0f0c 	teq	r4, ip
 80007f0:	ea0c 5513 	and.w	r5, ip, r3, lsr #20
 80007f4:	bf18      	it	ne
 80007f6:	ea95 0f0c 	teqne	r5, ip
 80007fa:	d00c      	beq.n	8000816 <__aeabi_dmul+0x206>
 80007fc:	ea50 0641 	orrs.w	r6, r0, r1, lsl #1
 8000800:	bf18      	it	ne
 8000802:	ea52 0643 	orrsne.w	r6, r2, r3, lsl #1
 8000806:	d1d1      	bne.n	80007ac <__aeabi_dmul+0x19c>
 8000808:	ea81 0103 	eor.w	r1, r1, r3
 800080c:	f001 4100 	and.w	r1, r1, #2147483648	; 0x80000000
 8000810:	f04f 0000 	mov.w	r0, #0
 8000814:	bd70      	pop	{r4, r5, r6, pc}
 8000816:	ea50 0641 	orrs.w	r6, r0, r1, lsl #1
 800081a:	bf06      	itte	eq
 800081c:	4610      	moveq	r0, r2
 800081e:	4619      	moveq	r1, r3
 8000820:	ea52 0643 	orrsne.w	r6, r2, r3, lsl #1
 8000824:	d019      	beq.n	800085a <__aeabi_dmul+0x24a>
 8000826:	ea94 0f0c 	teq	r4, ip
 800082a:	d102      	bne.n	8000832 <__aeabi_dmul+0x222>
 800082c:	ea50 3601 	orrs.w	r6, r0, r1, lsl #12
 8000830:	d113      	bne.n	800085a <__aeabi_dmul+0x24a>
 8000832:	ea95 0f0c 	teq	r5, ip
 8000836:	d105      	bne.n	8000844 <__aeabi_dmul+0x234>
 8000838:	ea52 3603 	orrs.w	r6, r2, r3, lsl #12
 800083c:	bf1c      	itt	ne
 800083e:	4610      	movne	r0, r2
 8000840:	4619      	movne	r1, r3
 8000842:	d10a      	bne.n	800085a <__aeabi_dmul+0x24a>
 8000844:	ea81 0103 	eor.w	r1, r1, r3
 8000848:	f001 4100 	and.w	r1, r1, #2147483648	; 0x80000000
 800084c:	f041 41fe 	orr.w	r1, r1, #2130706432	; 0x7f000000
 8000850:	f441 0170 	orr.w	r1, r1, #15728640	; 0xf00000
 8000854:	f04f 0000 	mov.w	r0, #0
 8000858:	bd70      	pop	{r4, r5, r6, pc}
 800085a:	f041 41fe 	orr.w	r1, r1, #2130706432	; 0x7f000000
 800085e:	f441 0178 	orr.w	r1, r1, #16252928	; 0xf80000
 8000862:	bd70      	pop	{r4, r5, r6, pc}

08000864 <__aeabi_ddiv>:
 8000864:	b570      	push	{r4, r5, r6, lr}
 8000866:	f04f 0cff 	mov.w	ip, #255	; 0xff
 800086a:	f44c 6ce0 	orr.w	ip, ip, #1792	; 0x700
 800086e:	ea1c 5411 	ands.w	r4, ip, r1, lsr #20
 8000872:	bf1d      	ittte	ne
 8000874:	ea1c 5513 	andsne.w	r5, ip, r3, lsr #20
 8000878:	ea94 0f0c 	teqne	r4, ip
 800087c:	ea95 0f0c 	teqne	r5, ip
 8000880:	f000 f8a7 	bleq	80009d2 <__aeabi_ddiv+0x16e>
 8000884:	eba4 0405 	sub.w	r4, r4, r5
 8000888:	ea81 0e03 	eor.w	lr, r1, r3
 800088c:	ea52 3503 	orrs.w	r5, r2, r3, lsl #12
 8000890:	ea4f 3101 	mov.w	r1, r1, lsl #12
 8000894:	f000 8088 	beq.w	80009a8 <__aeabi_ddiv+0x144>
 8000898:	ea4f 3303 	mov.w	r3, r3, lsl #12
 800089c:	f04f 5580 	mov.w	r5, #268435456	; 0x10000000
 80008a0:	ea45 1313 	orr.w	r3, r5, r3, lsr #4
 80008a4:	ea43 6312 	orr.w	r3, r3, r2, lsr #24
 80008a8:	ea4f 2202 	mov.w	r2, r2, lsl #8
 80008ac:	ea45 1511 	orr.w	r5, r5, r1, lsr #4
 80008b0:	ea45 6510 	orr.w	r5, r5, r0, lsr #24
 80008b4:	ea4f 2600 	mov.w	r6, r0, lsl #8
 80008b8:	f00e 4100 	and.w	r1, lr, #2147483648	; 0x80000000
 80008bc:	429d      	cmp	r5, r3
 80008be:	bf08      	it	eq
 80008c0:	4296      	cmpeq	r6, r2
 80008c2:	f144 04fd 	adc.w	r4, r4, #253	; 0xfd
 80008c6:	f504 7440 	add.w	r4, r4, #768	; 0x300
 80008ca:	d202      	bcs.n	80008d2 <__aeabi_ddiv+0x6e>
 80008cc:	085b      	lsrs	r3, r3, #1
 80008ce:	ea4f 0232 	mov.w	r2, r2, rrx
 80008d2:	1ab6      	subs	r6, r6, r2
 80008d4:	eb65 0503 	sbc.w	r5, r5, r3
 80008d8:	085b      	lsrs	r3, r3, #1
 80008da:	ea4f 0232 	mov.w	r2, r2, rrx
 80008de:	f44f 1080 	mov.w	r0, #1048576	; 0x100000
 80008e2:	f44f 2c00 	mov.w	ip, #524288	; 0x80000
 80008e6:	ebb6 0e02 	subs.w	lr, r6, r2
 80008ea:	eb75 0e03 	sbcs.w	lr, r5, r3
 80008ee:	bf22      	ittt	cs
 80008f0:	1ab6      	subcs	r6, r6, r2
 80008f2:	4675      	movcs	r5, lr
 80008f4:	ea40 000c 	orrcs.w	r0, r0, ip
 80008f8:	085b      	lsrs	r3, r3, #1
 80008fa:	ea4f 0232 	mov.w	r2, r2, rrx
 80008fe:	ebb6 0e02 	subs.w	lr, r6, r2
 8000902:	eb75 0e03 	sbcs.w	lr, r5, r3
 8000906:	bf22      	ittt	cs
 8000908:	1ab6      	subcs	r6, r6, r2
 800090a:	4675      	movcs	r5, lr
 800090c:	ea40 005c 	orrcs.w	r0, r0, ip, lsr #1
 8000910:	085b      	lsrs	r3, r3, #1
 8000912:	ea4f 0232 	mov.w	r2, r2, rrx
 8000916:	ebb6 0e02 	subs.w	lr, r6, r2
 800091a:	eb75 0e03 	sbcs.w	lr, r5, r3
 800091e:	bf22      	ittt	cs
 8000920:	1ab6      	subcs	r6, r6, r2
 8000922:	4675      	movcs	r5, lr
 8000924:	ea40 009c 	orrcs.w	r0, r0, ip, lsr #2
 8000928:	085b      	lsrs	r3, r3, #1
 800092a:	ea4f 0232 	mov.w	r2, r2, rrx
 800092e:	ebb6 0e02 	subs.w	lr, r6, r2
 8000932:	eb75 0e03 	sbcs.w	lr, r5, r3
 8000936:	bf22      	ittt	cs
 8000938:	1ab6      	subcs	r6, r6, r2
 800093a:	4675      	movcs	r5, lr
 800093c:	ea40 00dc 	orrcs.w	r0, r0, ip, lsr #3
 8000940:	ea55 0e06 	orrs.w	lr, r5, r6
 8000944:	d018      	beq.n	8000978 <__aeabi_ddiv+0x114>
 8000946:	ea4f 1505 	mov.w	r5, r5, lsl #4
 800094a:	ea45 7516 	orr.w	r5, r5, r6, lsr #28
 800094e:	ea4f 1606 	mov.w	r6, r6, lsl #4
 8000952:	ea4f 03c3 	mov.w	r3, r3, lsl #3
 8000956:	ea43 7352 	orr.w	r3, r3, r2, lsr #29
 800095a:	ea4f 02c2 	mov.w	r2, r2, lsl #3
 800095e:	ea5f 1c1c 	movs.w	ip, ip, lsr #4
 8000962:	d1c0      	bne.n	80008e6 <__aeabi_ddiv+0x82>
 8000964:	f411 1f80 	tst.w	r1, #1048576	; 0x100000
 8000968:	d10b      	bne.n	8000982 <__aeabi_ddiv+0x11e>
 800096a:	ea41 0100 	orr.w	r1, r1, r0
 800096e:	f04f 0000 	mov.w	r0, #0
 8000972:	f04f 4c00 	mov.w	ip, #2147483648	; 0x80000000
 8000976:	e7b6      	b.n	80008e6 <__aeabi_ddiv+0x82>
 8000978:	f411 1f80 	tst.w	r1, #1048576	; 0x100000
 800097c:	bf04      	itt	eq
 800097e:	4301      	orreq	r1, r0
 8000980:	2000      	moveq	r0, #0
 8000982:	f1b4 0cfd 	subs.w	ip, r4, #253	; 0xfd
 8000986:	bf88      	it	hi
 8000988:	f5bc 6fe0 	cmphi.w	ip, #1792	; 0x700
 800098c:	f63f aeaf 	bhi.w	80006ee <__aeabi_dmul+0xde>
 8000990:	ebb5 0c03 	subs.w	ip, r5, r3
 8000994:	bf04      	itt	eq
 8000996:	ebb6 0c02 	subseq.w	ip, r6, r2
 800099a:	ea5f 0c50 	movseq.w	ip, r0, lsr #1
 800099e:	f150 0000 	adcs.w	r0, r0, #0
 80009a2:	eb41 5104 	adc.w	r1, r1, r4, lsl #20
 80009a6:	bd70      	pop	{r4, r5, r6, pc}
 80009a8:	f00e 4e00 	and.w	lr, lr, #2147483648	; 0x80000000
 80009ac:	ea4e 3111 	orr.w	r1, lr, r1, lsr #12
 80009b0:	eb14 045c 	adds.w	r4, r4, ip, lsr #1
 80009b4:	bfc2      	ittt	gt
 80009b6:	ebd4 050c 	rsbsgt	r5, r4, ip
 80009ba:	ea41 5104 	orrgt.w	r1, r1, r4, lsl #20
 80009be:	bd70      	popgt	{r4, r5, r6, pc}
 80009c0:	f441 1180 	orr.w	r1, r1, #1048576	; 0x100000
 80009c4:	f04f 0e00 	mov.w	lr, #0
 80009c8:	3c01      	subs	r4, #1
 80009ca:	e690      	b.n	80006ee <__aeabi_dmul+0xde>
 80009cc:	ea45 0e06 	orr.w	lr, r5, r6
 80009d0:	e68d      	b.n	80006ee <__aeabi_dmul+0xde>
 80009d2:	ea0c 5513 	and.w	r5, ip, r3, lsr #20
 80009d6:	ea94 0f0c 	teq	r4, ip
 80009da:	bf08      	it	eq
 80009dc:	ea95 0f0c 	teqeq	r5, ip
 80009e0:	f43f af3b 	beq.w	800085a <__aeabi_dmul+0x24a>
 80009e4:	ea94 0f0c 	teq	r4, ip
 80009e8:	d10a      	bne.n	8000a00 <__aeabi_ddiv+0x19c>
 80009ea:	ea50 3401 	orrs.w	r4, r0, r1, lsl #12
 80009ee:	f47f af34 	bne.w	800085a <__aeabi_dmul+0x24a>
 80009f2:	ea95 0f0c 	teq	r5, ip
 80009f6:	f47f af25 	bne.w	8000844 <__aeabi_dmul+0x234>
 80009fa:	4610      	mov	r0, r2
 80009fc:	4619      	mov	r1, r3
 80009fe:	e72c      	b.n	800085a <__aeabi_dmul+0x24a>
 8000a00:	ea95 0f0c 	teq	r5, ip
 8000a04:	d106      	bne.n	8000a14 <__aeabi_ddiv+0x1b0>
 8000a06:	ea52 3503 	orrs.w	r5, r2, r3, lsl #12
 8000a0a:	f43f aefd 	beq.w	8000808 <__aeabi_dmul+0x1f8>
 8000a0e:	4610      	mov	r0, r2
 8000a10:	4619      	mov	r1, r3
 8000a12:	e722      	b.n	800085a <__aeabi_dmul+0x24a>
 8000a14:	ea50 0641 	orrs.w	r6, r0, r1, lsl #1
 8000a18:	bf18      	it	ne
 8000a1a:	ea52 0643 	orrsne.w	r6, r2, r3, lsl #1
 8000a1e:	f47f aec5 	bne.w	80007ac <__aeabi_dmul+0x19c>
 8000a22:	ea50 0441 	orrs.w	r4, r0, r1, lsl #1
 8000a26:	f47f af0d 	bne.w	8000844 <__aeabi_dmul+0x234>
 8000a2a:	ea52 0543 	orrs.w	r5, r2, r3, lsl #1
 8000a2e:	f47f aeeb 	bne.w	8000808 <__aeabi_dmul+0x1f8>
 8000a32:	e712      	b.n	800085a <__aeabi_dmul+0x24a>

08000a34 <__gedf2>:
 8000a34:	f04f 3cff 	mov.w	ip, #4294967295	; 0xffffffff
 8000a38:	e006      	b.n	8000a48 <__cmpdf2+0x4>
 8000a3a:	bf00      	nop

08000a3c <__ledf2>:
 8000a3c:	f04f 0c01 	mov.w	ip, #1
 8000a40:	e002      	b.n	8000a48 <__cmpdf2+0x4>
 8000a42:	bf00      	nop

08000a44 <__cmpdf2>:
 8000a44:	f04f 0c01 	mov.w	ip, #1
 8000a48:	f84d cd04 	str.w	ip, [sp, #-4]!
 8000a4c:	ea4f 0c41 	mov.w	ip, r1, lsl #1
 8000a50:	ea7f 5c6c 	mvns.w	ip, ip, asr #21
 8000a54:	ea4f 0c43 	mov.w	ip, r3, lsl #1
 8000a58:	bf18      	it	ne
 8000a5a:	ea7f 5c6c 	mvnsne.w	ip, ip, asr #21
 8000a5e:	d01b      	beq.n	8000a98 <__cmpdf2+0x54>
 8000a60:	b001      	add	sp, #4
 8000a62:	ea50 0c41 	orrs.w	ip, r0, r1, lsl #1
 8000a66:	bf0c      	ite	eq
 8000a68:	ea52 0c43 	orrseq.w	ip, r2, r3, lsl #1
 8000a6c:	ea91 0f03 	teqne	r1, r3
 8000a70:	bf02      	ittt	eq
 8000a72:	ea90 0f02 	teqeq	r0, r2
 8000a76:	2000      	moveq	r0, #0
 8000a78:	4770      	bxeq	lr
 8000a7a:	f110 0f00 	cmn.w	r0, #0
 8000a7e:	ea91 0f03 	teq	r1, r3
 8000a82:	bf58      	it	pl
 8000a84:	4299      	cmppl	r1, r3
 8000a86:	bf08      	it	eq
 8000a88:	4290      	cmpeq	r0, r2
 8000a8a:	bf2c      	ite	cs
 8000a8c:	17d8      	asrcs	r0, r3, #31
 8000a8e:	ea6f 70e3 	mvncc.w	r0, r3, asr #31
 8000a92:	f040 0001 	orr.w	r0, r0, #1
 8000a96:	4770      	bx	lr
 8000a98:	ea4f 0c41 	mov.w	ip, r1, lsl #1
 8000a9c:	ea7f 5c6c 	mvns.w	ip, ip, asr #21
 8000aa0:	d102      	bne.n	8000aa8 <__cmpdf2+0x64>
 8000aa2:	ea50 3c01 	orrs.w	ip, r0, r1, lsl #12
 8000aa6:	d107      	bne.n	8000ab8 <__cmpdf2+0x74>
 8000aa8:	ea4f 0c43 	mov.w	ip, r3, lsl #1
 8000aac:	ea7f 5c6c 	mvns.w	ip, ip, asr #21
 8000ab0:	d1d6      	bne.n	8000a60 <__cmpdf2+0x1c>
 8000ab2:	ea52 3c03 	orrs.w	ip, r2, r3, lsl #12
 8000ab6:	d0d3      	beq.n	8000a60 <__cmpdf2+0x1c>
 8000ab8:	f85d 0b04 	ldr.w	r0, [sp], #4
 8000abc:	4770      	bx	lr
 8000abe:	bf00      	nop

08000ac0 <__aeabi_cdrcmple>:
 8000ac0:	4684      	mov	ip, r0
 8000ac2:	4610      	mov	r0, r2
 8000ac4:	4662      	mov	r2, ip
 8000ac6:	468c      	mov	ip, r1
 8000ac8:	4619      	mov	r1, r3
 8000aca:	4663      	mov	r3, ip
 8000acc:	e000      	b.n	8000ad0 <__aeabi_cdcmpeq>
 8000ace:	bf00      	nop

08000ad0 <__aeabi_cdcmpeq>:
 8000ad0:	b501      	push	{r0, lr}
 8000ad2:	f7ff ffb7 	bl	8000a44 <__cmpdf2>
 8000ad6:	2800      	cmp	r0, #0
 8000ad8:	bf48      	it	mi
 8000ada:	f110 0f00 	cmnmi.w	r0, #0
 8000ade:	bd01      	pop	{r0, pc}

08000ae0 <__aeabi_dcmpeq>:
 8000ae0:	f84d ed08 	str.w	lr, [sp, #-8]!
 8000ae4:	f7ff fff4 	bl	8000ad0 <__aeabi_cdcmpeq>
 8000ae8:	bf0c      	ite	eq
 8000aea:	2001      	moveq	r0, #1
 8000aec:	2000      	movne	r0, #0
 8000aee:	f85d fb08 	ldr.w	pc, [sp], #8
 8000af2:	bf00      	nop

08000af4 <__aeabi_dcmplt>:
 8000af4:	f84d ed08 	str.w	lr, [sp, #-8]!
 8000af8:	f7ff ffea 	bl	8000ad0 <__aeabi_cdcmpeq>
 8000afc:	bf34      	ite	cc
 8000afe:	2001      	movcc	r0, #1
 8000b00:	2000      	movcs	r0, #0
 8000b02:	f85d fb08 	ldr.w	pc, [sp], #8
 8000b06:	bf00      	nop

08000b08 <__aeabi_dcmple>:
 8000b08:	f84d ed08 	str.w	lr, [sp, #-8]!
 8000b0c:	f7ff ffe0 	bl	8000ad0 <__aeabi_cdcmpeq>
 8000b10:	bf94      	ite	ls
 8000b12:	2001      	movls	r0, #1
 8000b14:	2000      	movhi	r0, #0
 8000b16:	f85d fb08 	ldr.w	pc, [sp], #8
 8000b1a:	bf00      	nop

08000b1c <__aeabi_dcmpge>:
 8000b1c:	f84d ed08 	str.w	lr, [sp, #-8]!
 8000b20:	f7ff ffce 	bl	8000ac0 <__aeabi_cdrcmple>
 8000b24:	bf94      	ite	ls
 8000b26:	2001      	movls	r0, #1
 8000b28:	2000      	movhi	r0, #0
 8000b2a:	f85d fb08 	ldr.w	pc, [sp], #8
 8000b2e:	bf00      	nop

08000b30 <__aeabi_dcmpgt>:
 8000b30:	f84d ed08 	str.w	lr, [sp, #-8]!
 8000b34:	f7ff ffc4 	bl	8000ac0 <__aeabi_cdrcmple>
 8000b38:	bf34      	ite	cc
 8000b3a:	2001      	movcc	r0, #1
 8000b3c:	2000      	movcs	r0, #0
 8000b3e:	f85d fb08 	ldr.w	pc, [sp], #8
 8000b42:	bf00      	nop

08000b44 <__aeabi_dcmpun>:
 8000b44:	ea4f 0c41 	mov.w	ip, r1, lsl #1
 8000b48:	ea7f 5c6c 	mvns.w	ip, ip, asr #21
 8000b4c:	d102      	bne.n	8000b54 <__aeabi_dcmpun+0x10>
 8000b4e:	ea50 3c01 	orrs.w	ip, r0, r1, lsl #12
 8000b52:	d10a      	bne.n	8000b6a <__aeabi_dcmpun+0x26>
 8000b54:	ea4f 0c43 	mov.w	ip, r3, lsl #1
 8000b58:	ea7f 5c6c 	mvns.w	ip, ip, asr #21
 8000b5c:	d102      	bne.n	8000b64 <__aeabi_dcmpun+0x20>
 8000b5e:	ea52 3c03 	orrs.w	ip, r2, r3, lsl #12
 8000b62:	d102      	bne.n	8000b6a <__aeabi_dcmpun+0x26>
 8000b64:	f04f 0000 	mov.w	r0, #0
 8000b68:	4770      	bx	lr
 8000b6a:	f04f 0001 	mov.w	r0, #1
 8000b6e:	4770      	bx	lr

08000b70 <__aeabi_d2iz>:
 8000b70:	ea4f 0241 	mov.w	r2, r1, lsl #1
 8000b74:	f512 1200 	adds.w	r2, r2, #2097152	; 0x200000
 8000b78:	d215      	bcs.n	8000ba6 <__aeabi_d2iz+0x36>
 8000b7a:	d511      	bpl.n	8000ba0 <__aeabi_d2iz+0x30>
 8000b7c:	f46f 7378 	mvn.w	r3, #992	; 0x3e0
 8000b80:	ebb3 5262 	subs.w	r2, r3, r2, asr #21
 8000b84:	d912      	bls.n	8000bac <__aeabi_d2iz+0x3c>
 8000b86:	ea4f 23c1 	mov.w	r3, r1, lsl #11
 8000b8a:	f043 4300 	orr.w	r3, r3, #2147483648	; 0x80000000
 8000b8e:	ea43 5350 	orr.w	r3, r3, r0, lsr #21
 8000b92:	f011 4f00 	tst.w	r1, #2147483648	; 0x80000000
 8000b96:	fa23 f002 	lsr.w	r0, r3, r2
 8000b9a:	bf18      	it	ne
 8000b9c:	4240      	negne	r0, r0
 8000b9e:	4770      	bx	lr
 8000ba0:	f04f 0000 	mov.w	r0, #0
 8000ba4:	4770      	bx	lr
 8000ba6:	ea50 3001 	orrs.w	r0, r0, r1, lsl #12
 8000baa:	d105      	bne.n	8000bb8 <__aeabi_d2iz+0x48>
 8000bac:	f011 4000 	ands.w	r0, r1, #2147483648	; 0x80000000
 8000bb0:	bf08      	it	eq
 8000bb2:	f06f 4000 	mvneq.w	r0, #2147483648	; 0x80000000
 8000bb6:	4770      	bx	lr
 8000bb8:	f04f 0000 	mov.w	r0, #0
 8000bbc:	4770      	bx	lr
 8000bbe:	bf00      	nop

08000bc0 <__aeabi_uldivmod>:
 8000bc0:	b953      	cbnz	r3, 8000bd8 <__aeabi_uldivmod+0x18>
 8000bc2:	b94a      	cbnz	r2, 8000bd8 <__aeabi_uldivmod+0x18>
 8000bc4:	2900      	cmp	r1, #0
 8000bc6:	bf08      	it	eq
 8000bc8:	2800      	cmpeq	r0, #0
 8000bca:	bf1c      	itt	ne
 8000bcc:	f04f 31ff 	movne.w	r1, #4294967295	; 0xffffffff
 8000bd0:	f04f 30ff 	movne.w	r0, #4294967295	; 0xffffffff
 8000bd4:	f000 b97a 	b.w	8000ecc <__aeabi_idiv0>
 8000bd8:	f1ad 0c08 	sub.w	ip, sp, #8
 8000bdc:	e96d ce04 	strd	ip, lr, [sp, #-16]!
 8000be0:	f000 f806 	bl	8000bf0 <__udivmoddi4>
 8000be4:	f8dd e004 	ldr.w	lr, [sp, #4]
 8000be8:	e9dd 2302 	ldrd	r2, r3, [sp, #8]
 8000bec:	b004      	add	sp, #16
 8000bee:	4770      	bx	lr

08000bf0 <__udivmoddi4>:
 8000bf0:	e92d 47f0 	stmdb	sp!, {r4, r5, r6, r7, r8, r9, sl, lr}
 8000bf4:	468c      	mov	ip, r1
 8000bf6:	460d      	mov	r5, r1
 8000bf8:	4604      	mov	r4, r0
 8000bfa:	9e08      	ldr	r6, [sp, #32]
 8000bfc:	2b00      	cmp	r3, #0
 8000bfe:	d151      	bne.n	8000ca4 <__udivmoddi4+0xb4>
 8000c00:	428a      	cmp	r2, r1
 8000c02:	4617      	mov	r7, r2
 8000c04:	d96d      	bls.n	8000ce2 <__udivmoddi4+0xf2>
 8000c06:	fab2 fe82 	clz	lr, r2
 8000c0a:	f1be 0f00 	cmp.w	lr, #0
 8000c0e:	d00b      	beq.n	8000c28 <__udivmoddi4+0x38>
 8000c10:	f1ce 0c20 	rsb	ip, lr, #32
 8000c14:	fa01 f50e 	lsl.w	r5, r1, lr
 8000c18:	fa20 fc0c 	lsr.w	ip, r0, ip
 8000c1c:	fa02 f70e 	lsl.w	r7, r2, lr
 8000c20:	ea4c 0c05 	orr.w	ip, ip, r5
 8000c24:	fa00 f40e 	lsl.w	r4, r0, lr
 8000c28:	ea4f 4a17 	mov.w	sl, r7, lsr #16
 8000c2c:	0c25      	lsrs	r5, r4, #16
 8000c2e:	fbbc f8fa 	udiv	r8, ip, sl
 8000c32:	fa1f f987 	uxth.w	r9, r7
 8000c36:	fb0a cc18 	mls	ip, sl, r8, ip
 8000c3a:	ea45 450c 	orr.w	r5, r5, ip, lsl #16
 8000c3e:	fb08 f309 	mul.w	r3, r8, r9
 8000c42:	42ab      	cmp	r3, r5
 8000c44:	d90a      	bls.n	8000c5c <__udivmoddi4+0x6c>
 8000c46:	19ed      	adds	r5, r5, r7
 8000c48:	f108 32ff 	add.w	r2, r8, #4294967295	; 0xffffffff
 8000c4c:	f080 8123 	bcs.w	8000e96 <__udivmoddi4+0x2a6>
 8000c50:	42ab      	cmp	r3, r5
 8000c52:	f240 8120 	bls.w	8000e96 <__udivmoddi4+0x2a6>
 8000c56:	f1a8 0802 	sub.w	r8, r8, #2
 8000c5a:	443d      	add	r5, r7
 8000c5c:	1aed      	subs	r5, r5, r3
 8000c5e:	b2a4      	uxth	r4, r4
 8000c60:	fbb5 f0fa 	udiv	r0, r5, sl
 8000c64:	fb0a 5510 	mls	r5, sl, r0, r5
 8000c68:	ea44 4405 	orr.w	r4, r4, r5, lsl #16
 8000c6c:	fb00 f909 	mul.w	r9, r0, r9
 8000c70:	45a1      	cmp	r9, r4
 8000c72:	d909      	bls.n	8000c88 <__udivmoddi4+0x98>
 8000c74:	19e4      	adds	r4, r4, r7
 8000c76:	f100 33ff 	add.w	r3, r0, #4294967295	; 0xffffffff
 8000c7a:	f080 810a 	bcs.w	8000e92 <__udivmoddi4+0x2a2>
 8000c7e:	45a1      	cmp	r9, r4
 8000c80:	f240 8107 	bls.w	8000e92 <__udivmoddi4+0x2a2>
 8000c84:	3802      	subs	r0, #2
 8000c86:	443c      	add	r4, r7
 8000c88:	eba4 0409 	sub.w	r4, r4, r9
 8000c8c:	ea40 4008 	orr.w	r0, r0, r8, lsl #16
 8000c90:	2100      	movs	r1, #0
 8000c92:	2e00      	cmp	r6, #0
 8000c94:	d061      	beq.n	8000d5a <__udivmoddi4+0x16a>
 8000c96:	fa24 f40e 	lsr.w	r4, r4, lr
 8000c9a:	2300      	movs	r3, #0
 8000c9c:	6034      	str	r4, [r6, #0]
 8000c9e:	6073      	str	r3, [r6, #4]
 8000ca0:	e8bd 87f0 	ldmia.w	sp!, {r4, r5, r6, r7, r8, r9, sl, pc}
 8000ca4:	428b      	cmp	r3, r1
 8000ca6:	d907      	bls.n	8000cb8 <__udivmoddi4+0xc8>
 8000ca8:	2e00      	cmp	r6, #0
 8000caa:	d054      	beq.n	8000d56 <__udivmoddi4+0x166>
 8000cac:	2100      	movs	r1, #0
 8000cae:	e886 0021 	stmia.w	r6, {r0, r5}
 8000cb2:	4608      	mov	r0, r1
 8000cb4:	e8bd 87f0 	ldmia.w	sp!, {r4, r5, r6, r7, r8, r9, sl, pc}
 8000cb8:	fab3 f183 	clz	r1, r3
 8000cbc:	2900      	cmp	r1, #0
 8000cbe:	f040 808e 	bne.w	8000dde <__udivmoddi4+0x1ee>
 8000cc2:	42ab      	cmp	r3, r5
 8000cc4:	d302      	bcc.n	8000ccc <__udivmoddi4+0xdc>
 8000cc6:	4282      	cmp	r2, r0
 8000cc8:	f200 80fa 	bhi.w	8000ec0 <__udivmoddi4+0x2d0>
 8000ccc:	1a84      	subs	r4, r0, r2
 8000cce:	eb65 0503 	sbc.w	r5, r5, r3
 8000cd2:	2001      	movs	r0, #1
 8000cd4:	46ac      	mov	ip, r5
 8000cd6:	2e00      	cmp	r6, #0
 8000cd8:	d03f      	beq.n	8000d5a <__udivmoddi4+0x16a>
 8000cda:	e886 1010 	stmia.w	r6, {r4, ip}
 8000cde:	e8bd 87f0 	ldmia.w	sp!, {r4, r5, r6, r7, r8, r9, sl, pc}
 8000ce2:	b912      	cbnz	r2, 8000cea <__udivmoddi4+0xfa>
 8000ce4:	2701      	movs	r7, #1
 8000ce6:	fbb7 f7f2 	udiv	r7, r7, r2
 8000cea:	fab7 fe87 	clz	lr, r7
 8000cee:	f1be 0f00 	cmp.w	lr, #0
 8000cf2:	d134      	bne.n	8000d5e <__udivmoddi4+0x16e>
 8000cf4:	1beb      	subs	r3, r5, r7
 8000cf6:	0c3a      	lsrs	r2, r7, #16
 8000cf8:	fa1f fc87 	uxth.w	ip, r7
 8000cfc:	2101      	movs	r1, #1
 8000cfe:	fbb3 f8f2 	udiv	r8, r3, r2
 8000d02:	0c25      	lsrs	r5, r4, #16
 8000d04:	fb02 3318 	mls	r3, r2, r8, r3
 8000d08:	ea45 4503 	orr.w	r5, r5, r3, lsl #16
 8000d0c:	fb0c f308 	mul.w	r3, ip, r8
 8000d10:	42ab      	cmp	r3, r5
 8000d12:	d907      	bls.n	8000d24 <__udivmoddi4+0x134>
 8000d14:	19ed      	adds	r5, r5, r7
 8000d16:	f108 30ff 	add.w	r0, r8, #4294967295	; 0xffffffff
 8000d1a:	d202      	bcs.n	8000d22 <__udivmoddi4+0x132>
 8000d1c:	42ab      	cmp	r3, r5
 8000d1e:	f200 80d1 	bhi.w	8000ec4 <__udivmoddi4+0x2d4>
 8000d22:	4680      	mov	r8, r0
 8000d24:	1aed      	subs	r5, r5, r3
 8000d26:	b2a3      	uxth	r3, r4
 8000d28:	fbb5 f0f2 	udiv	r0, r5, r2
 8000d2c:	fb02 5510 	mls	r5, r2, r0, r5
 8000d30:	ea43 4405 	orr.w	r4, r3, r5, lsl #16
 8000d34:	fb0c fc00 	mul.w	ip, ip, r0
 8000d38:	45a4      	cmp	ip, r4
 8000d3a:	d907      	bls.n	8000d4c <__udivmoddi4+0x15c>
 8000d3c:	19e4      	adds	r4, r4, r7
 8000d3e:	f100 33ff 	add.w	r3, r0, #4294967295	; 0xffffffff
 8000d42:	d202      	bcs.n	8000d4a <__udivmoddi4+0x15a>
 8000d44:	45a4      	cmp	ip, r4
 8000d46:	f200 80b8 	bhi.w	8000eba <__udivmoddi4+0x2ca>
 8000d4a:	4618      	mov	r0, r3
 8000d4c:	eba4 040c 	sub.w	r4, r4, ip
 8000d50:	ea40 4008 	orr.w	r0, r0, r8, lsl #16
 8000d54:	e79d      	b.n	8000c92 <__udivmoddi4+0xa2>
 8000d56:	4631      	mov	r1, r6
 8000d58:	4630      	mov	r0, r6
 8000d5a:	e8bd 87f0 	ldmia.w	sp!, {r4, r5, r6, r7, r8, r9, sl, pc}
 8000d5e:	f1ce 0420 	rsb	r4, lr, #32
 8000d62:	fa05 f30e 	lsl.w	r3, r5, lr
 8000d66:	fa07 f70e 	lsl.w	r7, r7, lr
 8000d6a:	fa20 f804 	lsr.w	r8, r0, r4
 8000d6e:	0c3a      	lsrs	r2, r7, #16
 8000d70:	fa25 f404 	lsr.w	r4, r5, r4
 8000d74:	ea48 0803 	orr.w	r8, r8, r3
 8000d78:	fbb4 f1f2 	udiv	r1, r4, r2
 8000d7c:	ea4f 4518 	mov.w	r5, r8, lsr #16
 8000d80:	fb02 4411 	mls	r4, r2, r1, r4
 8000d84:	fa1f fc87 	uxth.w	ip, r7
 8000d88:	ea45 4504 	orr.w	r5, r5, r4, lsl #16
 8000d8c:	fb01 f30c 	mul.w	r3, r1, ip
 8000d90:	42ab      	cmp	r3, r5
 8000d92:	fa00 f40e 	lsl.w	r4, r0, lr
 8000d96:	d909      	bls.n	8000dac <__udivmoddi4+0x1bc>
 8000d98:	19ed      	adds	r5, r5, r7
 8000d9a:	f101 30ff 	add.w	r0, r1, #4294967295	; 0xffffffff
 8000d9e:	f080 808a 	bcs.w	8000eb6 <__udivmoddi4+0x2c6>
 8000da2:	42ab      	cmp	r3, r5
 8000da4:	f240 8087 	bls.w	8000eb6 <__udivmoddi4+0x2c6>
 8000da8:	3902      	subs	r1, #2
 8000daa:	443d      	add	r5, r7
 8000dac:	1aeb      	subs	r3, r5, r3
 8000dae:	fa1f f588 	uxth.w	r5, r8
 8000db2:	fbb3 f0f2 	udiv	r0, r3, r2
 8000db6:	fb02 3310 	mls	r3, r2, r0, r3
 8000dba:	ea45 4503 	orr.w	r5, r5, r3, lsl #16
 8000dbe:	fb00 f30c 	mul.w	r3, r0, ip
 8000dc2:	42ab      	cmp	r3, r5
 8000dc4:	d907      	bls.n	8000dd6 <__udivmoddi4+0x1e6>
 8000dc6:	19ed      	adds	r5, r5, r7
 8000dc8:	f100 38ff 	add.w	r8, r0, #4294967295	; 0xffffffff
 8000dcc:	d26f      	bcs.n	8000eae <__udivmoddi4+0x2be>
 8000dce:	42ab      	cmp	r3, r5
 8000dd0:	d96d      	bls.n	8000eae <__udivmoddi4+0x2be>
 8000dd2:	3802      	subs	r0, #2
 8000dd4:	443d      	add	r5, r7
 8000dd6:	1aeb      	subs	r3, r5, r3
 8000dd8:	ea40 4101 	orr.w	r1, r0, r1, lsl #16
 8000ddc:	e78f      	b.n	8000cfe <__udivmoddi4+0x10e>
 8000dde:	f1c1 0720 	rsb	r7, r1, #32
 8000de2:	fa22 f807 	lsr.w	r8, r2, r7
 8000de6:	408b      	lsls	r3, r1
 8000de8:	fa05 f401 	lsl.w	r4, r5, r1
 8000dec:	ea48 0303 	orr.w	r3, r8, r3
 8000df0:	fa20 fe07 	lsr.w	lr, r0, r7
 8000df4:	ea4f 4c13 	mov.w	ip, r3, lsr #16
 8000df8:	40fd      	lsrs	r5, r7
 8000dfa:	ea4e 0e04 	orr.w	lr, lr, r4
 8000dfe:	fbb5 f9fc 	udiv	r9, r5, ip
 8000e02:	ea4f 441e 	mov.w	r4, lr, lsr #16
 8000e06:	fb0c 5519 	mls	r5, ip, r9, r5
 8000e0a:	fa1f f883 	uxth.w	r8, r3
 8000e0e:	ea44 4505 	orr.w	r5, r4, r5, lsl #16
 8000e12:	fb09 f408 	mul.w	r4, r9, r8
 8000e16:	42ac      	cmp	r4, r5
 8000e18:	fa02 f201 	lsl.w	r2, r2, r1
 8000e1c:	fa00 fa01 	lsl.w	sl, r0, r1
 8000e20:	d908      	bls.n	8000e34 <__udivmoddi4+0x244>
 8000e22:	18ed      	adds	r5, r5, r3
 8000e24:	f109 30ff 	add.w	r0, r9, #4294967295	; 0xffffffff
 8000e28:	d243      	bcs.n	8000eb2 <__udivmoddi4+0x2c2>
 8000e2a:	42ac      	cmp	r4, r5
 8000e2c:	d941      	bls.n	8000eb2 <__udivmoddi4+0x2c2>
 8000e2e:	f1a9 0902 	sub.w	r9, r9, #2
 8000e32:	441d      	add	r5, r3
 8000e34:	1b2d      	subs	r5, r5, r4
 8000e36:	fa1f fe8e 	uxth.w	lr, lr
 8000e3a:	fbb5 f0fc 	udiv	r0, r5, ip
 8000e3e:	fb0c 5510 	mls	r5, ip, r0, r5
 8000e42:	ea4e 4405 	orr.w	r4, lr, r5, lsl #16
 8000e46:	fb00 f808 	mul.w	r8, r0, r8
 8000e4a:	45a0      	cmp	r8, r4
 8000e4c:	d907      	bls.n	8000e5e <__udivmoddi4+0x26e>
 8000e4e:	18e4      	adds	r4, r4, r3
 8000e50:	f100 35ff 	add.w	r5, r0, #4294967295	; 0xffffffff
 8000e54:	d229      	bcs.n	8000eaa <__udivmoddi4+0x2ba>
 8000e56:	45a0      	cmp	r8, r4
 8000e58:	d927      	bls.n	8000eaa <__udivmoddi4+0x2ba>
 8000e5a:	3802      	subs	r0, #2
 8000e5c:	441c      	add	r4, r3
 8000e5e:	ea40 4009 	orr.w	r0, r0, r9, lsl #16
 8000e62:	eba4 0408 	sub.w	r4, r4, r8
 8000e66:	fba0 8902 	umull	r8, r9, r0, r2
 8000e6a:	454c      	cmp	r4, r9
 8000e6c:	46c6      	mov	lr, r8
 8000e6e:	464d      	mov	r5, r9
 8000e70:	d315      	bcc.n	8000e9e <__udivmoddi4+0x2ae>
 8000e72:	d012      	beq.n	8000e9a <__udivmoddi4+0x2aa>
 8000e74:	b156      	cbz	r6, 8000e8c <__udivmoddi4+0x29c>
 8000e76:	ebba 030e 	subs.w	r3, sl, lr
 8000e7a:	eb64 0405 	sbc.w	r4, r4, r5
 8000e7e:	fa04 f707 	lsl.w	r7, r4, r7
 8000e82:	40cb      	lsrs	r3, r1
 8000e84:	431f      	orrs	r7, r3
 8000e86:	40cc      	lsrs	r4, r1
 8000e88:	6037      	str	r7, [r6, #0]
 8000e8a:	6074      	str	r4, [r6, #4]
 8000e8c:	2100      	movs	r1, #0
 8000e8e:	e8bd 87f0 	ldmia.w	sp!, {r4, r5, r6, r7, r8, r9, sl, pc}
 8000e92:	4618      	mov	r0, r3
 8000e94:	e6f8      	b.n	8000c88 <__udivmoddi4+0x98>
 8000e96:	4690      	mov	r8, r2
 8000e98:	e6e0      	b.n	8000c5c <__udivmoddi4+0x6c>
 8000e9a:	45c2      	cmp	sl, r8
 8000e9c:	d2ea      	bcs.n	8000e74 <__udivmoddi4+0x284>
 8000e9e:	ebb8 0e02 	subs.w	lr, r8, r2
 8000ea2:	eb69 0503 	sbc.w	r5, r9, r3
 8000ea6:	3801      	subs	r0, #1
 8000ea8:	e7e4      	b.n	8000e74 <__udivmoddi4+0x284>
 8000eaa:	4628      	mov	r0, r5
 8000eac:	e7d7      	b.n	8000e5e <__udivmoddi4+0x26e>
 8000eae:	4640      	mov	r0, r8
 8000eb0:	e791      	b.n	8000dd6 <__udivmoddi4+0x1e6>
 8000eb2:	4681      	mov	r9, r0
 8000eb4:	e7be      	b.n	8000e34 <__udivmoddi4+0x244>
 8000eb6:	4601      	mov	r1, r0
 8000eb8:	e778      	b.n	8000dac <__udivmoddi4+0x1bc>
 8000eba:	3802      	subs	r0, #2
 8000ebc:	443c      	add	r4, r7
 8000ebe:	e745      	b.n	8000d4c <__udivmoddi4+0x15c>
 8000ec0:	4608      	mov	r0, r1
 8000ec2:	e708      	b.n	8000cd6 <__udivmoddi4+0xe6>
 8000ec4:	f1a8 0802 	sub.w	r8, r8, #2
 8000ec8:	443d      	add	r5, r7
 8000eca:	e72b      	b.n	8000d24 <__udivmoddi4+0x134>

08000ecc <__aeabi_idiv0>:
 8000ecc:	4770      	bx	lr
 8000ece:	bf00      	nop

08000ed0 <GPIO_Init>:
  * @param  GPIO_InitStruct: pointer to a GPIO_InitTypeDef structure that contains
  *         the configuration information for the specified GPIO peripheral.
  * @retval None
  */
void GPIO_Init(GPIO_TypeDef* GPIOx, GPIO_InitTypeDef* GPIO_InitStruct)
{
 8000ed0:	b480      	push	{r7}
 8000ed2:	b087      	sub	sp, #28
 8000ed4:	af00      	add	r7, sp, #0
 8000ed6:	6078      	str	r0, [r7, #4]
 8000ed8:	6039      	str	r1, [r7, #0]
  uint32_t pinpos = 0x00, pos = 0x00 , currentpin = 0x00;
 8000eda:	2300      	movs	r3, #0
 8000edc:	617b      	str	r3, [r7, #20]
 8000ede:	2300      	movs	r3, #0
 8000ee0:	613b      	str	r3, [r7, #16]
 8000ee2:	2300      	movs	r3, #0
 8000ee4:	60fb      	str	r3, [r7, #12]
  assert_param(IS_GPIO_MODE(GPIO_InitStruct->GPIO_Mode));
  assert_param(IS_GPIO_PUPD(GPIO_InitStruct->GPIO_PuPd));

  /* ------------------------- Configure the port pins ---------------- */
  /*-- GPIO Mode Configuration --*/
  for (pinpos = 0x00; pinpos < 0x10; pinpos++)
 8000ee6:	2300      	movs	r3, #0
 8000ee8:	617b      	str	r3, [r7, #20]
 8000eea:	e076      	b.n	8000fda <GPIO_Init+0x10a>
  {
    pos = ((uint32_t)0x01) << pinpos;
 8000eec:	2201      	movs	r2, #1
 8000eee:	697b      	ldr	r3, [r7, #20]
 8000ef0:	fa02 f303 	lsl.w	r3, r2, r3
 8000ef4:	613b      	str	r3, [r7, #16]
    /* Get the port pins position */
    currentpin = (GPIO_InitStruct->GPIO_Pin) & pos;
 8000ef6:	683b      	ldr	r3, [r7, #0]
 8000ef8:	681a      	ldr	r2, [r3, #0]
 8000efa:	693b      	ldr	r3, [r7, #16]
 8000efc:	4013      	ands	r3, r2
 8000efe:	60fb      	str	r3, [r7, #12]

    if (currentpin == pos)
 8000f00:	68fa      	ldr	r2, [r7, #12]
 8000f02:	693b      	ldr	r3, [r7, #16]
 8000f04:	429a      	cmp	r2, r3
 8000f06:	d165      	bne.n	8000fd4 <GPIO_Init+0x104>
    {
      GPIOx->MODER  &= ~(GPIO_MODER_MODER0 << (pinpos * 2));
 8000f08:	687b      	ldr	r3, [r7, #4]
 8000f0a:	681a      	ldr	r2, [r3, #0]
 8000f0c:	697b      	ldr	r3, [r7, #20]
 8000f0e:	005b      	lsls	r3, r3, #1
 8000f10:	2103      	movs	r1, #3
 8000f12:	fa01 f303 	lsl.w	r3, r1, r3
 8000f16:	43db      	mvns	r3, r3
 8000f18:	401a      	ands	r2, r3
 8000f1a:	687b      	ldr	r3, [r7, #4]
 8000f1c:	601a      	str	r2, [r3, #0]
      GPIOx->MODER |= (((uint32_t)GPIO_InitStruct->GPIO_Mode) << (pinpos * 2));
 8000f1e:	687b      	ldr	r3, [r7, #4]
 8000f20:	681a      	ldr	r2, [r3, #0]
 8000f22:	683b      	ldr	r3, [r7, #0]
 8000f24:	791b      	ldrb	r3, [r3, #4]
 8000f26:	4619      	mov	r1, r3
 8000f28:	697b      	ldr	r3, [r7, #20]
 8000f2a:	005b      	lsls	r3, r3, #1
 8000f2c:	fa01 f303 	lsl.w	r3, r1, r3
 8000f30:	431a      	orrs	r2, r3
 8000f32:	687b      	ldr	r3, [r7, #4]
 8000f34:	601a      	str	r2, [r3, #0]

      if ((GPIO_InitStruct->GPIO_Mode == GPIO_Mode_OUT) || (GPIO_InitStruct->GPIO_Mode == GPIO_Mode_AF))
 8000f36:	683b      	ldr	r3, [r7, #0]
 8000f38:	791b      	ldrb	r3, [r3, #4]
 8000f3a:	2b01      	cmp	r3, #1
 8000f3c:	d003      	beq.n	8000f46 <GPIO_Init+0x76>
 8000f3e:	683b      	ldr	r3, [r7, #0]
 8000f40:	791b      	ldrb	r3, [r3, #4]
 8000f42:	2b02      	cmp	r3, #2
 8000f44:	d12e      	bne.n	8000fa4 <GPIO_Init+0xd4>
      {
        /* Check Speed mode parameters */
        assert_param(IS_GPIO_SPEED(GPIO_InitStruct->GPIO_Speed));

        /* Speed mode configuration */
        GPIOx->OSPEEDR &= ~(GPIO_OSPEEDER_OSPEEDR0 << (pinpos * 2));
 8000f46:	687b      	ldr	r3, [r7, #4]
 8000f48:	689a      	ldr	r2, [r3, #8]
 8000f4a:	697b      	ldr	r3, [r7, #20]
 8000f4c:	005b      	lsls	r3, r3, #1
 8000f4e:	2103      	movs	r1, #3
 8000f50:	fa01 f303 	lsl.w	r3, r1, r3
 8000f54:	43db      	mvns	r3, r3
 8000f56:	401a      	ands	r2, r3
 8000f58:	687b      	ldr	r3, [r7, #4]
 8000f5a:	609a      	str	r2, [r3, #8]
        GPIOx->OSPEEDR |= ((uint32_t)(GPIO_InitStruct->GPIO_Speed) << (pinpos * 2));
 8000f5c:	687b      	ldr	r3, [r7, #4]
 8000f5e:	689a      	ldr	r2, [r3, #8]
 8000f60:	683b      	ldr	r3, [r7, #0]
 8000f62:	795b      	ldrb	r3, [r3, #5]
 8000f64:	4619      	mov	r1, r3
 8000f66:	697b      	ldr	r3, [r7, #20]
 8000f68:	005b      	lsls	r3, r3, #1
 8000f6a:	fa01 f303 	lsl.w	r3, r1, r3
 8000f6e:	431a      	orrs	r2, r3
 8000f70:	687b      	ldr	r3, [r7, #4]
 8000f72:	609a      	str	r2, [r3, #8]

        /* Check Output mode parameters */
        assert_param(IS_GPIO_OTYPE(GPIO_InitStruct->GPIO_OType));

        /* Output mode configuration*/
        GPIOx->OTYPER  &= ~((GPIO_OTYPER_OT_0) << ((uint16_t)pinpos)) ;
 8000f74:	687b      	ldr	r3, [r7, #4]
 8000f76:	685a      	ldr	r2, [r3, #4]
 8000f78:	697b      	ldr	r3, [r7, #20]
 8000f7a:	b29b      	uxth	r3, r3
 8000f7c:	4619      	mov	r1, r3
 8000f7e:	2301      	movs	r3, #1
 8000f80:	408b      	lsls	r3, r1
 8000f82:	43db      	mvns	r3, r3
 8000f84:	401a      	ands	r2, r3
 8000f86:	687b      	ldr	r3, [r7, #4]
 8000f88:	605a      	str	r2, [r3, #4]
        GPIOx->OTYPER |= (uint16_t)(((uint16_t)GPIO_InitStruct->GPIO_OType) << ((uint16_t)pinpos));
 8000f8a:	687b      	ldr	r3, [r7, #4]
 8000f8c:	685b      	ldr	r3, [r3, #4]
 8000f8e:	683a      	ldr	r2, [r7, #0]
 8000f90:	7992      	ldrb	r2, [r2, #6]
 8000f92:	4611      	mov	r1, r2
 8000f94:	697a      	ldr	r2, [r7, #20]
 8000f96:	b292      	uxth	r2, r2
 8000f98:	fa01 f202 	lsl.w	r2, r1, r2
 8000f9c:	b292      	uxth	r2, r2
 8000f9e:	431a      	orrs	r2, r3
 8000fa0:	687b      	ldr	r3, [r7, #4]
 8000fa2:	605a      	str	r2, [r3, #4]
      }

      /* Pull-up Pull down resistor configuration*/
      GPIOx->PUPDR &= ~(GPIO_PUPDR_PUPDR0 << ((uint16_t)pinpos * 2));
 8000fa4:	687b      	ldr	r3, [r7, #4]
 8000fa6:	68da      	ldr	r2, [r3, #12]
 8000fa8:	697b      	ldr	r3, [r7, #20]
 8000faa:	b29b      	uxth	r3, r3
 8000fac:	005b      	lsls	r3, r3, #1
 8000fae:	2103      	movs	r1, #3
 8000fb0:	fa01 f303 	lsl.w	r3, r1, r3
 8000fb4:	43db      	mvns	r3, r3
 8000fb6:	401a      	ands	r2, r3
 8000fb8:	687b      	ldr	r3, [r7, #4]
 8000fba:	60da      	str	r2, [r3, #12]
      GPIOx->PUPDR |= (((uint32_t)GPIO_InitStruct->GPIO_PuPd) << (pinpos * 2));
 8000fbc:	687b      	ldr	r3, [r7, #4]
 8000fbe:	68da      	ldr	r2, [r3, #12]
 8000fc0:	683b      	ldr	r3, [r7, #0]
 8000fc2:	79db      	ldrb	r3, [r3, #7]
 8000fc4:	4619      	mov	r1, r3
 8000fc6:	697b      	ldr	r3, [r7, #20]
 8000fc8:	005b      	lsls	r3, r3, #1
 8000fca:	fa01 f303 	lsl.w	r3, r1, r3
 8000fce:	431a      	orrs	r2, r3
 8000fd0:	687b      	ldr	r3, [r7, #4]
 8000fd2:	60da      	str	r2, [r3, #12]
  for (pinpos = 0x00; pinpos < 0x10; pinpos++)
 8000fd4:	697b      	ldr	r3, [r7, #20]
 8000fd6:	3301      	adds	r3, #1
 8000fd8:	617b      	str	r3, [r7, #20]
 8000fda:	697b      	ldr	r3, [r7, #20]
 8000fdc:	2b0f      	cmp	r3, #15
 8000fde:	d985      	bls.n	8000eec <GPIO_Init+0x1c>
    }
  }
}
 8000fe0:	bf00      	nop
 8000fe2:	371c      	adds	r7, #28
 8000fe4:	46bd      	mov	sp, r7
 8000fe6:	f85d 7b04 	ldr.w	r7, [sp], #4
 8000fea:	4770      	bx	lr

08000fec <GPIO_PinAFConfig>:
  *            @arg GPIO_AF_LTDC: Connect LTDC pins to AF14 for STM32F429xx/439xx devices. 
  *            @arg GPIO_AF_EVENTOUT: Connect EVENTOUT pins to AF15
  * @retval None
  */
void GPIO_PinAFConfig(GPIO_TypeDef* GPIOx, uint16_t GPIO_PinSource, uint8_t GPIO_AF)
{
 8000fec:	b480      	push	{r7}
 8000fee:	b085      	sub	sp, #20
 8000ff0:	af00      	add	r7, sp, #0
 8000ff2:	6078      	str	r0, [r7, #4]
 8000ff4:	460b      	mov	r3, r1
 8000ff6:	807b      	strh	r3, [r7, #2]
 8000ff8:	4613      	mov	r3, r2
 8000ffa:	707b      	strb	r3, [r7, #1]
  uint32_t temp = 0x00;
 8000ffc:	2300      	movs	r3, #0
 8000ffe:	60fb      	str	r3, [r7, #12]
  uint32_t temp_2 = 0x00;
 8001000:	2300      	movs	r3, #0
 8001002:	60bb      	str	r3, [r7, #8]
  /* Check the parameters */
  assert_param(IS_GPIO_ALL_PERIPH(GPIOx));
  assert_param(IS_GPIO_PIN_SOURCE(GPIO_PinSource));
  assert_param(IS_GPIO_AF(GPIO_AF));
  
  temp = ((uint32_t)(GPIO_AF) << ((uint32_t)((uint32_t)GPIO_PinSource & (uint32_t)0x07) * 4)) ;
 8001004:	787a      	ldrb	r2, [r7, #1]
 8001006:	887b      	ldrh	r3, [r7, #2]
 8001008:	f003 0307 	and.w	r3, r3, #7
 800100c:	009b      	lsls	r3, r3, #2
 800100e:	fa02 f303 	lsl.w	r3, r2, r3
 8001012:	60fb      	str	r3, [r7, #12]
  GPIOx->AFR[GPIO_PinSource >> 0x03] &= ~((uint32_t)0xF << ((uint32_t)((uint32_t)GPIO_PinSource & (uint32_t)0x07) * 4)) ;
 8001014:	887b      	ldrh	r3, [r7, #2]
 8001016:	08db      	lsrs	r3, r3, #3
 8001018:	b29b      	uxth	r3, r3
 800101a:	4618      	mov	r0, r3
 800101c:	887b      	ldrh	r3, [r7, #2]
 800101e:	08db      	lsrs	r3, r3, #3
 8001020:	b29b      	uxth	r3, r3
 8001022:	461a      	mov	r2, r3
 8001024:	687b      	ldr	r3, [r7, #4]
 8001026:	3208      	adds	r2, #8
 8001028:	f853 2022 	ldr.w	r2, [r3, r2, lsl #2]
 800102c:	887b      	ldrh	r3, [r7, #2]
 800102e:	f003 0307 	and.w	r3, r3, #7
 8001032:	009b      	lsls	r3, r3, #2
 8001034:	210f      	movs	r1, #15
 8001036:	fa01 f303 	lsl.w	r3, r1, r3
 800103a:	43db      	mvns	r3, r3
 800103c:	ea02 0103 	and.w	r1, r2, r3
 8001040:	687b      	ldr	r3, [r7, #4]
 8001042:	f100 0208 	add.w	r2, r0, #8
 8001046:	f843 1022 	str.w	r1, [r3, r2, lsl #2]
  temp_2 = GPIOx->AFR[GPIO_PinSource >> 0x03] | temp;
 800104a:	887b      	ldrh	r3, [r7, #2]
 800104c:	08db      	lsrs	r3, r3, #3
 800104e:	b29b      	uxth	r3, r3
 8001050:	461a      	mov	r2, r3
 8001052:	687b      	ldr	r3, [r7, #4]
 8001054:	3208      	adds	r2, #8
 8001056:	f853 2022 	ldr.w	r2, [r3, r2, lsl #2]
 800105a:	68fb      	ldr	r3, [r7, #12]
 800105c:	4313      	orrs	r3, r2
 800105e:	60bb      	str	r3, [r7, #8]
  GPIOx->AFR[GPIO_PinSource >> 0x03] = temp_2;
 8001060:	887b      	ldrh	r3, [r7, #2]
 8001062:	08db      	lsrs	r3, r3, #3
 8001064:	b29b      	uxth	r3, r3
 8001066:	461a      	mov	r2, r3
 8001068:	687b      	ldr	r3, [r7, #4]
 800106a:	3208      	adds	r2, #8
 800106c:	68b9      	ldr	r1, [r7, #8]
 800106e:	f843 1022 	str.w	r1, [r3, r2, lsl #2]
}
 8001072:	bf00      	nop
 8001074:	3714      	adds	r7, #20
 8001076:	46bd      	mov	sp, r7
 8001078:	f85d 7b04 	ldr.w	r7, [sp], #4
 800107c:	4770      	bx	lr
	...

08001080 <RCC_GetClocksFreq>:
  *         configuration based on this function will be incorrect.
  *    
  * @retval None
  */
void RCC_GetClocksFreq(RCC_ClocksTypeDef* RCC_Clocks)
{
 8001080:	b480      	push	{r7}
 8001082:	b089      	sub	sp, #36	; 0x24
 8001084:	af00      	add	r7, sp, #0
 8001086:	6078      	str	r0, [r7, #4]
  uint32_t tmp = 0, presc = 0, pllvco = 0, pllp = 2, pllsource = 0, pllm = 2;
 8001088:	2300      	movs	r3, #0
 800108a:	61bb      	str	r3, [r7, #24]
 800108c:	2300      	movs	r3, #0
 800108e:	617b      	str	r3, [r7, #20]
 8001090:	2300      	movs	r3, #0
 8001092:	61fb      	str	r3, [r7, #28]
 8001094:	2302      	movs	r3, #2
 8001096:	613b      	str	r3, [r7, #16]
 8001098:	2300      	movs	r3, #0
 800109a:	60fb      	str	r3, [r7, #12]
 800109c:	2302      	movs	r3, #2
 800109e:	60bb      	str	r3, [r7, #8]

  /* Get SYSCLK source -------------------------------------------------------*/
  tmp = RCC->CFGR & RCC_CFGR_SWS;
 80010a0:	4b47      	ldr	r3, [pc, #284]	; (80011c0 <RCC_GetClocksFreq+0x140>)
 80010a2:	689b      	ldr	r3, [r3, #8]
 80010a4:	f003 030c 	and.w	r3, r3, #12
 80010a8:	61bb      	str	r3, [r7, #24]

  switch (tmp)
 80010aa:	69bb      	ldr	r3, [r7, #24]
 80010ac:	2b04      	cmp	r3, #4
 80010ae:	d007      	beq.n	80010c0 <RCC_GetClocksFreq+0x40>
 80010b0:	2b08      	cmp	r3, #8
 80010b2:	d009      	beq.n	80010c8 <RCC_GetClocksFreq+0x48>
 80010b4:	2b00      	cmp	r3, #0
 80010b6:	d13d      	bne.n	8001134 <RCC_GetClocksFreq+0xb4>
  {
    case 0x00:  /* HSI used as system clock source */
      RCC_Clocks->SYSCLK_Frequency = HSI_VALUE;
 80010b8:	687b      	ldr	r3, [r7, #4]
 80010ba:	4a42      	ldr	r2, [pc, #264]	; (80011c4 <RCC_GetClocksFreq+0x144>)
 80010bc:	601a      	str	r2, [r3, #0]
      break;
 80010be:	e03d      	b.n	800113c <RCC_GetClocksFreq+0xbc>
    case 0x04:  /* HSE used as system clock  source */
      RCC_Clocks->SYSCLK_Frequency = HSE_VALUE;
 80010c0:	687b      	ldr	r3, [r7, #4]
 80010c2:	4a41      	ldr	r2, [pc, #260]	; (80011c8 <RCC_GetClocksFreq+0x148>)
 80010c4:	601a      	str	r2, [r3, #0]
      break;
 80010c6:	e039      	b.n	800113c <RCC_GetClocksFreq+0xbc>
    case 0x08:  /* PLL used as system clock  source */

      /* PLL_VCO = (HSE_VALUE or HSI_VALUE / PLLM) * PLLN
         SYSCLK = PLL_VCO / PLLP
         */    
      pllsource = (RCC->PLLCFGR & RCC_PLLCFGR_PLLSRC) >> 22;
 80010c8:	4b3d      	ldr	r3, [pc, #244]	; (80011c0 <RCC_GetClocksFreq+0x140>)
 80010ca:	685b      	ldr	r3, [r3, #4]
 80010cc:	0d9b      	lsrs	r3, r3, #22
 80010ce:	f003 0301 	and.w	r3, r3, #1
 80010d2:	60fb      	str	r3, [r7, #12]
      pllm = RCC->PLLCFGR & RCC_PLLCFGR_PLLM;
 80010d4:	4b3a      	ldr	r3, [pc, #232]	; (80011c0 <RCC_GetClocksFreq+0x140>)
 80010d6:	685b      	ldr	r3, [r3, #4]
 80010d8:	f003 033f 	and.w	r3, r3, #63	; 0x3f
 80010dc:	60bb      	str	r3, [r7, #8]
      
      if (pllsource != 0)
 80010de:	68fb      	ldr	r3, [r7, #12]
 80010e0:	2b00      	cmp	r3, #0
 80010e2:	d00c      	beq.n	80010fe <RCC_GetClocksFreq+0x7e>
      {
        /* HSE used as PLL clock source */
        pllvco = (HSE_VALUE / pllm) * ((RCC->PLLCFGR & RCC_PLLCFGR_PLLN) >> 6);
 80010e4:	4a38      	ldr	r2, [pc, #224]	; (80011c8 <RCC_GetClocksFreq+0x148>)
 80010e6:	68bb      	ldr	r3, [r7, #8]
 80010e8:	fbb2 f3f3 	udiv	r3, r2, r3
 80010ec:	4a34      	ldr	r2, [pc, #208]	; (80011c0 <RCC_GetClocksFreq+0x140>)
 80010ee:	6852      	ldr	r2, [r2, #4]
 80010f0:	0992      	lsrs	r2, r2, #6
 80010f2:	f3c2 0208 	ubfx	r2, r2, #0, #9
 80010f6:	fb02 f303 	mul.w	r3, r2, r3
 80010fa:	61fb      	str	r3, [r7, #28]
 80010fc:	e00b      	b.n	8001116 <RCC_GetClocksFreq+0x96>
      }
      else
      {
        /* HSI used as PLL clock source */
        pllvco = (HSI_VALUE / pllm) * ((RCC->PLLCFGR & RCC_PLLCFGR_PLLN) >> 6);      
 80010fe:	4a31      	ldr	r2, [pc, #196]	; (80011c4 <RCC_GetClocksFreq+0x144>)
 8001100:	68bb      	ldr	r3, [r7, #8]
 8001102:	fbb2 f3f3 	udiv	r3, r2, r3
 8001106:	4a2e      	ldr	r2, [pc, #184]	; (80011c0 <RCC_GetClocksFreq+0x140>)
 8001108:	6852      	ldr	r2, [r2, #4]
 800110a:	0992      	lsrs	r2, r2, #6
 800110c:	f3c2 0208 	ubfx	r2, r2, #0, #9
 8001110:	fb02 f303 	mul.w	r3, r2, r3
 8001114:	61fb      	str	r3, [r7, #28]
      }

      pllp = (((RCC->PLLCFGR & RCC_PLLCFGR_PLLP) >>16) + 1 ) *2;
 8001116:	4b2a      	ldr	r3, [pc, #168]	; (80011c0 <RCC_GetClocksFreq+0x140>)
 8001118:	685b      	ldr	r3, [r3, #4]
 800111a:	0c1b      	lsrs	r3, r3, #16
 800111c:	f003 0303 	and.w	r3, r3, #3
 8001120:	3301      	adds	r3, #1
 8001122:	005b      	lsls	r3, r3, #1
 8001124:	613b      	str	r3, [r7, #16]
      RCC_Clocks->SYSCLK_Frequency = pllvco/pllp;
 8001126:	69fa      	ldr	r2, [r7, #28]
 8001128:	693b      	ldr	r3, [r7, #16]
 800112a:	fbb2 f2f3 	udiv	r2, r2, r3
 800112e:	687b      	ldr	r3, [r7, #4]
 8001130:	601a      	str	r2, [r3, #0]
      break;
 8001132:	e003      	b.n	800113c <RCC_GetClocksFreq+0xbc>
    default:
      RCC_Clocks->SYSCLK_Frequency = HSI_VALUE;
 8001134:	687b      	ldr	r3, [r7, #4]
 8001136:	4a23      	ldr	r2, [pc, #140]	; (80011c4 <RCC_GetClocksFreq+0x144>)
 8001138:	601a      	str	r2, [r3, #0]
      break;
 800113a:	bf00      	nop
  }
  /* Compute HCLK, PCLK1 and PCLK2 clocks frequencies ------------------------*/

  /* Get HCLK prescaler */
  tmp = RCC->CFGR & RCC_CFGR_HPRE;
 800113c:	4b20      	ldr	r3, [pc, #128]	; (80011c0 <RCC_GetClocksFreq+0x140>)
 800113e:	689b      	ldr	r3, [r3, #8]
 8001140:	f003 03f0 	and.w	r3, r3, #240	; 0xf0
 8001144:	61bb      	str	r3, [r7, #24]
  tmp = tmp >> 4;
 8001146:	69bb      	ldr	r3, [r7, #24]
 8001148:	091b      	lsrs	r3, r3, #4
 800114a:	61bb      	str	r3, [r7, #24]
  presc = APBAHBPrescTable[tmp];
 800114c:	4a1f      	ldr	r2, [pc, #124]	; (80011cc <RCC_GetClocksFreq+0x14c>)
 800114e:	69bb      	ldr	r3, [r7, #24]
 8001150:	4413      	add	r3, r2
 8001152:	781b      	ldrb	r3, [r3, #0]
 8001154:	b2db      	uxtb	r3, r3
 8001156:	617b      	str	r3, [r7, #20]
  /* HCLK clock frequency */
  RCC_Clocks->HCLK_Frequency = RCC_Clocks->SYSCLK_Frequency >> presc;
 8001158:	687b      	ldr	r3, [r7, #4]
 800115a:	681a      	ldr	r2, [r3, #0]
 800115c:	697b      	ldr	r3, [r7, #20]
 800115e:	40da      	lsrs	r2, r3
 8001160:	687b      	ldr	r3, [r7, #4]
 8001162:	605a      	str	r2, [r3, #4]

  /* Get PCLK1 prescaler */
  tmp = RCC->CFGR & RCC_CFGR_PPRE1;
 8001164:	4b16      	ldr	r3, [pc, #88]	; (80011c0 <RCC_GetClocksFreq+0x140>)
 8001166:	689b      	ldr	r3, [r3, #8]
 8001168:	f403 53e0 	and.w	r3, r3, #7168	; 0x1c00
 800116c:	61bb      	str	r3, [r7, #24]
  tmp = tmp >> 10;
 800116e:	69bb      	ldr	r3, [r7, #24]
 8001170:	0a9b      	lsrs	r3, r3, #10
 8001172:	61bb      	str	r3, [r7, #24]
  presc = APBAHBPrescTable[tmp];
 8001174:	4a15      	ldr	r2, [pc, #84]	; (80011cc <RCC_GetClocksFreq+0x14c>)
 8001176:	69bb      	ldr	r3, [r7, #24]
 8001178:	4413      	add	r3, r2
 800117a:	781b      	ldrb	r3, [r3, #0]
 800117c:	b2db      	uxtb	r3, r3
 800117e:	617b      	str	r3, [r7, #20]
  /* PCLK1 clock frequency */
  RCC_Clocks->PCLK1_Frequency = RCC_Clocks->HCLK_Frequency >> presc;
 8001180:	687b      	ldr	r3, [r7, #4]
 8001182:	685a      	ldr	r2, [r3, #4]
 8001184:	697b      	ldr	r3, [r7, #20]
 8001186:	40da      	lsrs	r2, r3
 8001188:	687b      	ldr	r3, [r7, #4]
 800118a:	609a      	str	r2, [r3, #8]

  /* Get PCLK2 prescaler */
  tmp = RCC->CFGR & RCC_CFGR_PPRE2;
 800118c:	4b0c      	ldr	r3, [pc, #48]	; (80011c0 <RCC_GetClocksFreq+0x140>)
 800118e:	689b      	ldr	r3, [r3, #8]
 8001190:	f403 4360 	and.w	r3, r3, #57344	; 0xe000
 8001194:	61bb      	str	r3, [r7, #24]
  tmp = tmp >> 13;
 8001196:	69bb      	ldr	r3, [r7, #24]
 8001198:	0b5b      	lsrs	r3, r3, #13
 800119a:	61bb      	str	r3, [r7, #24]
  presc = APBAHBPrescTable[tmp];
 800119c:	4a0b      	ldr	r2, [pc, #44]	; (80011cc <RCC_GetClocksFreq+0x14c>)
 800119e:	69bb      	ldr	r3, [r7, #24]
 80011a0:	4413      	add	r3, r2
 80011a2:	781b      	ldrb	r3, [r3, #0]
 80011a4:	b2db      	uxtb	r3, r3
 80011a6:	617b      	str	r3, [r7, #20]
  /* PCLK2 clock frequency */
  RCC_Clocks->PCLK2_Frequency = RCC_Clocks->HCLK_Frequency >> presc;
 80011a8:	687b      	ldr	r3, [r7, #4]
 80011aa:	685a      	ldr	r2, [r3, #4]
 80011ac:	697b      	ldr	r3, [r7, #20]
 80011ae:	40da      	lsrs	r2, r3
 80011b0:	687b      	ldr	r3, [r7, #4]
 80011b2:	60da      	str	r2, [r3, #12]
}
 80011b4:	bf00      	nop
 80011b6:	3724      	adds	r7, #36	; 0x24
 80011b8:	46bd      	mov	sp, r7
 80011ba:	f85d 7b04 	ldr.w	r7, [sp], #4
 80011be:	4770      	bx	lr
 80011c0:	40023800 	.word	0x40023800
 80011c4:	00f42400 	.word	0x00f42400
 80011c8:	007a1200 	.word	0x007a1200
 80011cc:	20000000 	.word	0x20000000

080011d0 <RCC_AHB1PeriphClockCmd>:
  * @param  NewState: new state of the specified peripheral clock.
  *          This parameter can be: ENABLE or DISABLE.
  * @retval None
  */
void RCC_AHB1PeriphClockCmd(uint32_t RCC_AHB1Periph, FunctionalState NewState)
{
 80011d0:	b480      	push	{r7}
 80011d2:	b083      	sub	sp, #12
 80011d4:	af00      	add	r7, sp, #0
 80011d6:	6078      	str	r0, [r7, #4]
 80011d8:	460b      	mov	r3, r1
 80011da:	70fb      	strb	r3, [r7, #3]
  /* Check the parameters */
  assert_param(IS_RCC_AHB1_CLOCK_PERIPH(RCC_AHB1Periph));

  assert_param(IS_FUNCTIONAL_STATE(NewState));
  if (NewState != DISABLE)
 80011dc:	78fb      	ldrb	r3, [r7, #3]
 80011de:	2b00      	cmp	r3, #0
 80011e0:	d006      	beq.n	80011f0 <RCC_AHB1PeriphClockCmd+0x20>
  {
    RCC->AHB1ENR |= RCC_AHB1Periph;
 80011e2:	490a      	ldr	r1, [pc, #40]	; (800120c <RCC_AHB1PeriphClockCmd+0x3c>)
 80011e4:	4b09      	ldr	r3, [pc, #36]	; (800120c <RCC_AHB1PeriphClockCmd+0x3c>)
 80011e6:	6b1a      	ldr	r2, [r3, #48]	; 0x30
 80011e8:	687b      	ldr	r3, [r7, #4]
 80011ea:	4313      	orrs	r3, r2
 80011ec:	630b      	str	r3, [r1, #48]	; 0x30
  }
  else
  {
    RCC->AHB1ENR &= ~RCC_AHB1Periph;
  }
}
 80011ee:	e006      	b.n	80011fe <RCC_AHB1PeriphClockCmd+0x2e>
    RCC->AHB1ENR &= ~RCC_AHB1Periph;
 80011f0:	4906      	ldr	r1, [pc, #24]	; (800120c <RCC_AHB1PeriphClockCmd+0x3c>)
 80011f2:	4b06      	ldr	r3, [pc, #24]	; (800120c <RCC_AHB1PeriphClockCmd+0x3c>)
 80011f4:	6b1a      	ldr	r2, [r3, #48]	; 0x30
 80011f6:	687b      	ldr	r3, [r7, #4]
 80011f8:	43db      	mvns	r3, r3
 80011fa:	4013      	ands	r3, r2
 80011fc:	630b      	str	r3, [r1, #48]	; 0x30
}
 80011fe:	bf00      	nop
 8001200:	370c      	adds	r7, #12
 8001202:	46bd      	mov	sp, r7
 8001204:	f85d 7b04 	ldr.w	r7, [sp], #4
 8001208:	4770      	bx	lr
 800120a:	bf00      	nop
 800120c:	40023800 	.word	0x40023800

08001210 <RCC_AHB2PeriphClockCmd>:
  * @param  NewState: new state of the specified peripheral clock.
  *          This parameter can be: ENABLE or DISABLE.
  * @retval None
  */
void RCC_AHB2PeriphClockCmd(uint32_t RCC_AHB2Periph, FunctionalState NewState)
{
 8001210:	b480      	push	{r7}
 8001212:	b083      	sub	sp, #12
 8001214:	af00      	add	r7, sp, #0
 8001216:	6078      	str	r0, [r7, #4]
 8001218:	460b      	mov	r3, r1
 800121a:	70fb      	strb	r3, [r7, #3]
  /* Check the parameters */
  assert_param(IS_RCC_AHB2_PERIPH(RCC_AHB2Periph));
  assert_param(IS_FUNCTIONAL_STATE(NewState));

  if (NewState != DISABLE)
 800121c:	78fb      	ldrb	r3, [r7, #3]
 800121e:	2b00      	cmp	r3, #0
 8001220:	d006      	beq.n	8001230 <RCC_AHB2PeriphClockCmd+0x20>
  {
    RCC->AHB2ENR |= RCC_AHB2Periph;
 8001222:	490a      	ldr	r1, [pc, #40]	; (800124c <RCC_AHB2PeriphClockCmd+0x3c>)
 8001224:	4b09      	ldr	r3, [pc, #36]	; (800124c <RCC_AHB2PeriphClockCmd+0x3c>)
 8001226:	6b5a      	ldr	r2, [r3, #52]	; 0x34
 8001228:	687b      	ldr	r3, [r7, #4]
 800122a:	4313      	orrs	r3, r2
 800122c:	634b      	str	r3, [r1, #52]	; 0x34
  }
  else
  {
    RCC->AHB2ENR &= ~RCC_AHB2Periph;
  }
}
 800122e:	e006      	b.n	800123e <RCC_AHB2PeriphClockCmd+0x2e>
    RCC->AHB2ENR &= ~RCC_AHB2Periph;
 8001230:	4906      	ldr	r1, [pc, #24]	; (800124c <RCC_AHB2PeriphClockCmd+0x3c>)
 8001232:	4b06      	ldr	r3, [pc, #24]	; (800124c <RCC_AHB2PeriphClockCmd+0x3c>)
 8001234:	6b5a      	ldr	r2, [r3, #52]	; 0x34
 8001236:	687b      	ldr	r3, [r7, #4]
 8001238:	43db      	mvns	r3, r3
 800123a:	4013      	ands	r3, r2
 800123c:	634b      	str	r3, [r1, #52]	; 0x34
}
 800123e:	bf00      	nop
 8001240:	370c      	adds	r7, #12
 8001242:	46bd      	mov	sp, r7
 8001244:	f85d 7b04 	ldr.w	r7, [sp], #4
 8001248:	4770      	bx	lr
 800124a:	bf00      	nop
 800124c:	40023800 	.word	0x40023800

08001250 <RCC_APB2PeriphClockCmd>:
  * @param  NewState: new state of the specified peripheral clock.
  *          This parameter can be: ENABLE or DISABLE.
  * @retval None
  */
void RCC_APB2PeriphClockCmd(uint32_t RCC_APB2Periph, FunctionalState NewState)
{
 8001250:	b480      	push	{r7}
 8001252:	b083      	sub	sp, #12
 8001254:	af00      	add	r7, sp, #0
 8001256:	6078      	str	r0, [r7, #4]
 8001258:	460b      	mov	r3, r1
 800125a:	70fb      	strb	r3, [r7, #3]
  /* Check the parameters */
  assert_param(IS_RCC_APB2_PERIPH(RCC_APB2Periph));
  assert_param(IS_FUNCTIONAL_STATE(NewState));

  if (NewState != DISABLE)
 800125c:	78fb      	ldrb	r3, [r7, #3]
 800125e:	2b00      	cmp	r3, #0
 8001260:	d006      	beq.n	8001270 <RCC_APB2PeriphClockCmd+0x20>
  {
    RCC->APB2ENR |= RCC_APB2Periph;
 8001262:	490a      	ldr	r1, [pc, #40]	; (800128c <RCC_APB2PeriphClockCmd+0x3c>)
 8001264:	4b09      	ldr	r3, [pc, #36]	; (800128c <RCC_APB2PeriphClockCmd+0x3c>)
 8001266:	6c5a      	ldr	r2, [r3, #68]	; 0x44
 8001268:	687b      	ldr	r3, [r7, #4]
 800126a:	4313      	orrs	r3, r2
 800126c:	644b      	str	r3, [r1, #68]	; 0x44
  }
  else
  {
    RCC->APB2ENR &= ~RCC_APB2Periph;
  }
}
 800126e:	e006      	b.n	800127e <RCC_APB2PeriphClockCmd+0x2e>
    RCC->APB2ENR &= ~RCC_APB2Periph;
 8001270:	4906      	ldr	r1, [pc, #24]	; (800128c <RCC_APB2PeriphClockCmd+0x3c>)
 8001272:	4b06      	ldr	r3, [pc, #24]	; (800128c <RCC_APB2PeriphClockCmd+0x3c>)
 8001274:	6c5a      	ldr	r2, [r3, #68]	; 0x44
 8001276:	687b      	ldr	r3, [r7, #4]
 8001278:	43db      	mvns	r3, r3
 800127a:	4013      	ands	r3, r2
 800127c:	644b      	str	r3, [r1, #68]	; 0x44
}
 800127e:	bf00      	nop
 8001280:	370c      	adds	r7, #12
 8001282:	46bd      	mov	sp, r7
 8001284:	f85d 7b04 	ldr.w	r7, [sp], #4
 8001288:	4770      	bx	lr
 800128a:	bf00      	nop
 800128c:	40023800 	.word	0x40023800

08001290 <TIM_TimeBaseInit>:
  * @param  TIM_TimeBaseInitStruct: pointer to a TIM_TimeBaseInitTypeDef structure
  *         that contains the configuration information for the specified TIM peripheral.
  * @retval None
  */
void TIM_TimeBaseInit(TIM_TypeDef* TIMx, TIM_TimeBaseInitTypeDef* TIM_TimeBaseInitStruct)
{
 8001290:	b480      	push	{r7}
 8001292:	b085      	sub	sp, #20
 8001294:	af00      	add	r7, sp, #0
 8001296:	6078      	str	r0, [r7, #4]
 8001298:	6039      	str	r1, [r7, #0]
  uint16_t tmpcr1 = 0;
 800129a:	2300      	movs	r3, #0
 800129c:	81fb      	strh	r3, [r7, #14]
  /* Check the parameters */
  assert_param(IS_TIM_ALL_PERIPH(TIMx)); 
  assert_param(IS_TIM_COUNTER_MODE(TIM_TimeBaseInitStruct->TIM_CounterMode));
  assert_param(IS_TIM_CKD_DIV(TIM_TimeBaseInitStruct->TIM_ClockDivision));

  tmpcr1 = TIMx->CR1;  
 800129e:	687b      	ldr	r3, [r7, #4]
 80012a0:	881b      	ldrh	r3, [r3, #0]
 80012a2:	81fb      	strh	r3, [r7, #14]

  if((TIMx == TIM1) || (TIMx == TIM8)||
 80012a4:	687b      	ldr	r3, [r7, #4]
 80012a6:	4a29      	ldr	r2, [pc, #164]	; (800134c <TIM_TimeBaseInit+0xbc>)
 80012a8:	4293      	cmp	r3, r2
 80012aa:	d013      	beq.n	80012d4 <TIM_TimeBaseInit+0x44>
 80012ac:	687b      	ldr	r3, [r7, #4]
 80012ae:	4a28      	ldr	r2, [pc, #160]	; (8001350 <TIM_TimeBaseInit+0xc0>)
 80012b0:	4293      	cmp	r3, r2
 80012b2:	d00f      	beq.n	80012d4 <TIM_TimeBaseInit+0x44>
 80012b4:	687b      	ldr	r3, [r7, #4]
 80012b6:	f1b3 4f80 	cmp.w	r3, #1073741824	; 0x40000000
 80012ba:	d00b      	beq.n	80012d4 <TIM_TimeBaseInit+0x44>
     (TIMx == TIM2) || (TIMx == TIM3)||
 80012bc:	687b      	ldr	r3, [r7, #4]
 80012be:	4a25      	ldr	r2, [pc, #148]	; (8001354 <TIM_TimeBaseInit+0xc4>)
 80012c0:	4293      	cmp	r3, r2
 80012c2:	d007      	beq.n	80012d4 <TIM_TimeBaseInit+0x44>
 80012c4:	687b      	ldr	r3, [r7, #4]
 80012c6:	4a24      	ldr	r2, [pc, #144]	; (8001358 <TIM_TimeBaseInit+0xc8>)
 80012c8:	4293      	cmp	r3, r2
 80012ca:	d003      	beq.n	80012d4 <TIM_TimeBaseInit+0x44>
     (TIMx == TIM4) || (TIMx == TIM5)) 
 80012cc:	687b      	ldr	r3, [r7, #4]
 80012ce:	4a23      	ldr	r2, [pc, #140]	; (800135c <TIM_TimeBaseInit+0xcc>)
 80012d0:	4293      	cmp	r3, r2
 80012d2:	d108      	bne.n	80012e6 <TIM_TimeBaseInit+0x56>
  {
    /* Select the Counter Mode */
    tmpcr1 &= (uint16_t)(~(TIM_CR1_DIR | TIM_CR1_CMS));
 80012d4:	89fb      	ldrh	r3, [r7, #14]
 80012d6:	f023 0370 	bic.w	r3, r3, #112	; 0x70
 80012da:	81fb      	strh	r3, [r7, #14]
    tmpcr1 |= (uint32_t)TIM_TimeBaseInitStruct->TIM_CounterMode;
 80012dc:	683b      	ldr	r3, [r7, #0]
 80012de:	885a      	ldrh	r2, [r3, #2]
 80012e0:	89fb      	ldrh	r3, [r7, #14]
 80012e2:	4313      	orrs	r3, r2
 80012e4:	81fb      	strh	r3, [r7, #14]
  }
 
  if((TIMx != TIM6) && (TIMx != TIM7))
 80012e6:	687b      	ldr	r3, [r7, #4]
 80012e8:	4a1d      	ldr	r2, [pc, #116]	; (8001360 <TIM_TimeBaseInit+0xd0>)
 80012ea:	4293      	cmp	r3, r2
 80012ec:	d00c      	beq.n	8001308 <TIM_TimeBaseInit+0x78>
 80012ee:	687b      	ldr	r3, [r7, #4]
 80012f0:	4a1c      	ldr	r2, [pc, #112]	; (8001364 <TIM_TimeBaseInit+0xd4>)
 80012f2:	4293      	cmp	r3, r2
 80012f4:	d008      	beq.n	8001308 <TIM_TimeBaseInit+0x78>
  {
    /* Set the clock division */
    tmpcr1 &=  (uint16_t)(~TIM_CR1_CKD);
 80012f6:	89fb      	ldrh	r3, [r7, #14]
 80012f8:	f423 7340 	bic.w	r3, r3, #768	; 0x300
 80012fc:	81fb      	strh	r3, [r7, #14]
    tmpcr1 |= (uint32_t)TIM_TimeBaseInitStruct->TIM_ClockDivision;
 80012fe:	683b      	ldr	r3, [r7, #0]
 8001300:	891a      	ldrh	r2, [r3, #8]
 8001302:	89fb      	ldrh	r3, [r7, #14]
 8001304:	4313      	orrs	r3, r2
 8001306:	81fb      	strh	r3, [r7, #14]
  }

  TIMx->CR1 = tmpcr1;
 8001308:	687b      	ldr	r3, [r7, #4]
 800130a:	89fa      	ldrh	r2, [r7, #14]
 800130c:	801a      	strh	r2, [r3, #0]

  /* Set the Autoreload value */
  TIMx->ARR = TIM_TimeBaseInitStruct->TIM_Period ;
 800130e:	683b      	ldr	r3, [r7, #0]
 8001310:	685a      	ldr	r2, [r3, #4]
 8001312:	687b      	ldr	r3, [r7, #4]
 8001314:	62da      	str	r2, [r3, #44]	; 0x2c
 
  /* Set the Prescaler value */
  TIMx->PSC = TIM_TimeBaseInitStruct->TIM_Prescaler;
 8001316:	683b      	ldr	r3, [r7, #0]
 8001318:	881a      	ldrh	r2, [r3, #0]
 800131a:	687b      	ldr	r3, [r7, #4]
 800131c:	851a      	strh	r2, [r3, #40]	; 0x28
    
  if ((TIMx == TIM1) || (TIMx == TIM8))  
 800131e:	687b      	ldr	r3, [r7, #4]
 8001320:	4a0a      	ldr	r2, [pc, #40]	; (800134c <TIM_TimeBaseInit+0xbc>)
 8001322:	4293      	cmp	r3, r2
 8001324:	d003      	beq.n	800132e <TIM_TimeBaseInit+0x9e>
 8001326:	687b      	ldr	r3, [r7, #4]
 8001328:	4a09      	ldr	r2, [pc, #36]	; (8001350 <TIM_TimeBaseInit+0xc0>)
 800132a:	4293      	cmp	r3, r2
 800132c:	d104      	bne.n	8001338 <TIM_TimeBaseInit+0xa8>
  {
    /* Set the Repetition Counter value */
    TIMx->RCR = TIM_TimeBaseInitStruct->TIM_RepetitionCounter;
 800132e:	683b      	ldr	r3, [r7, #0]
 8001330:	7a9b      	ldrb	r3, [r3, #10]
 8001332:	b29a      	uxth	r2, r3
 8001334:	687b      	ldr	r3, [r7, #4]
 8001336:	861a      	strh	r2, [r3, #48]	; 0x30
  }

  /* Generate an update event to reload the Prescaler 
     and the repetition counter(only for TIM1 and TIM8) value immediatly */
  TIMx->EGR = TIM_PSCReloadMode_Immediate;          
 8001338:	687b      	ldr	r3, [r7, #4]
 800133a:	2201      	movs	r2, #1
 800133c:	829a      	strh	r2, [r3, #20]
}
 800133e:	bf00      	nop
 8001340:	3714      	adds	r7, #20
 8001342:	46bd      	mov	sp, r7
 8001344:	f85d 7b04 	ldr.w	r7, [sp], #4
 8001348:	4770      	bx	lr
 800134a:	bf00      	nop
 800134c:	40010000 	.word	0x40010000
 8001350:	40010400 	.word	0x40010400
 8001354:	40000400 	.word	0x40000400
 8001358:	40000800 	.word	0x40000800
 800135c:	40000c00 	.word	0x40000c00
 8001360:	40001000 	.word	0x40001000
 8001364:	40001400 	.word	0x40001400

08001368 <TIM_ARRPreloadConfig>:
  * @param  NewState: new state of the TIMx peripheral Preload register
  *          This parameter can be: ENABLE or DISABLE.
  * @retval None
  */
void TIM_ARRPreloadConfig(TIM_TypeDef* TIMx, FunctionalState NewState)
{
 8001368:	b480      	push	{r7}
 800136a:	b083      	sub	sp, #12
 800136c:	af00      	add	r7, sp, #0
 800136e:	6078      	str	r0, [r7, #4]
 8001370:	460b      	mov	r3, r1
 8001372:	70fb      	strb	r3, [r7, #3]
  /* Check the parameters */
  assert_param(IS_TIM_ALL_PERIPH(TIMx));
  assert_param(IS_FUNCTIONAL_STATE(NewState));

  if (NewState != DISABLE)
 8001374:	78fb      	ldrb	r3, [r7, #3]
 8001376:	2b00      	cmp	r3, #0
 8001378:	d008      	beq.n	800138c <TIM_ARRPreloadConfig+0x24>
  {
    /* Set the ARR Preload Bit */
    TIMx->CR1 |= TIM_CR1_ARPE;
 800137a:	687b      	ldr	r3, [r7, #4]
 800137c:	881b      	ldrh	r3, [r3, #0]
 800137e:	b29b      	uxth	r3, r3
 8001380:	f043 0380 	orr.w	r3, r3, #128	; 0x80
 8001384:	b29a      	uxth	r2, r3
 8001386:	687b      	ldr	r3, [r7, #4]
 8001388:	801a      	strh	r2, [r3, #0]
  else
  {
    /* Reset the ARR Preload Bit */
    TIMx->CR1 &= (uint16_t)~TIM_CR1_ARPE;
  }
}
 800138a:	e007      	b.n	800139c <TIM_ARRPreloadConfig+0x34>
    TIMx->CR1 &= (uint16_t)~TIM_CR1_ARPE;
 800138c:	687b      	ldr	r3, [r7, #4]
 800138e:	881b      	ldrh	r3, [r3, #0]
 8001390:	b29b      	uxth	r3, r3
 8001392:	f023 0380 	bic.w	r3, r3, #128	; 0x80
 8001396:	b29a      	uxth	r2, r3
 8001398:	687b      	ldr	r3, [r7, #4]
 800139a:	801a      	strh	r2, [r3, #0]
}
 800139c:	bf00      	nop
 800139e:	370c      	adds	r7, #12
 80013a0:	46bd      	mov	sp, r7
 80013a2:	f85d 7b04 	ldr.w	r7, [sp], #4
 80013a6:	4770      	bx	lr

080013a8 <TIM_Cmd>:
  * @param  NewState: new state of the TIMx peripheral.
  *          This parameter can be: ENABLE or DISABLE.
  * @retval None
  */
void TIM_Cmd(TIM_TypeDef* TIMx, FunctionalState NewState)
{
 80013a8:	b480      	push	{r7}
 80013aa:	b083      	sub	sp, #12
 80013ac:	af00      	add	r7, sp, #0
 80013ae:	6078      	str	r0, [r7, #4]
 80013b0:	460b      	mov	r3, r1
 80013b2:	70fb      	strb	r3, [r7, #3]
  /* Check the parameters */
  assert_param(IS_TIM_ALL_PERIPH(TIMx)); 
  assert_param(IS_FUNCTIONAL_STATE(NewState));
  
  if (NewState != DISABLE)
 80013b4:	78fb      	ldrb	r3, [r7, #3]
 80013b6:	2b00      	cmp	r3, #0
 80013b8:	d008      	beq.n	80013cc <TIM_Cmd+0x24>
  {
    /* Enable the TIM Counter */
    TIMx->CR1 |= TIM_CR1_CEN;
 80013ba:	687b      	ldr	r3, [r7, #4]
 80013bc:	881b      	ldrh	r3, [r3, #0]
 80013be:	b29b      	uxth	r3, r3
 80013c0:	f043 0301 	orr.w	r3, r3, #1
 80013c4:	b29a      	uxth	r2, r3
 80013c6:	687b      	ldr	r3, [r7, #4]
 80013c8:	801a      	strh	r2, [r3, #0]
  else
  {
    /* Disable the TIM Counter */
    TIMx->CR1 &= (uint16_t)~TIM_CR1_CEN;
  }
}
 80013ca:	e007      	b.n	80013dc <TIM_Cmd+0x34>
    TIMx->CR1 &= (uint16_t)~TIM_CR1_CEN;
 80013cc:	687b      	ldr	r3, [r7, #4]
 80013ce:	881b      	ldrh	r3, [r3, #0]
 80013d0:	b29b      	uxth	r3, r3
 80013d2:	f023 0301 	bic.w	r3, r3, #1
 80013d6:	b29a      	uxth	r2, r3
 80013d8:	687b      	ldr	r3, [r7, #4]
 80013da:	801a      	strh	r2, [r3, #0]
}
 80013dc:	bf00      	nop
 80013de:	370c      	adds	r7, #12
 80013e0:	46bd      	mov	sp, r7
 80013e2:	f85d 7b04 	ldr.w	r7, [sp], #4
 80013e6:	4770      	bx	lr

080013e8 <TIM_OC1Init>:
  * @param  TIM_OCInitStruct: pointer to a TIM_OCInitTypeDef structure that contains
  *         the configuration information for the specified TIM peripheral.
  * @retval None
  */
void TIM_OC1Init(TIM_TypeDef* TIMx, TIM_OCInitTypeDef* TIM_OCInitStruct)
{
 80013e8:	b480      	push	{r7}
 80013ea:	b085      	sub	sp, #20
 80013ec:	af00      	add	r7, sp, #0
 80013ee:	6078      	str	r0, [r7, #4]
 80013f0:	6039      	str	r1, [r7, #0]
  uint16_t tmpccmrx = 0, tmpccer = 0, tmpcr2 = 0;
 80013f2:	2300      	movs	r3, #0
 80013f4:	817b      	strh	r3, [r7, #10]
 80013f6:	2300      	movs	r3, #0
 80013f8:	81fb      	strh	r3, [r7, #14]
 80013fa:	2300      	movs	r3, #0
 80013fc:	81bb      	strh	r3, [r7, #12]
  assert_param(IS_TIM_OC_MODE(TIM_OCInitStruct->TIM_OCMode));
  assert_param(IS_TIM_OUTPUT_STATE(TIM_OCInitStruct->TIM_OutputState));
  assert_param(IS_TIM_OC_POLARITY(TIM_OCInitStruct->TIM_OCPolarity));   

  /* Disable the Channel 1: Reset the CC1E Bit */
  TIMx->CCER &= (uint16_t)~TIM_CCER_CC1E;
 80013fe:	687b      	ldr	r3, [r7, #4]
 8001400:	8c1b      	ldrh	r3, [r3, #32]
 8001402:	b29b      	uxth	r3, r3
 8001404:	f023 0301 	bic.w	r3, r3, #1
 8001408:	b29a      	uxth	r2, r3
 800140a:	687b      	ldr	r3, [r7, #4]
 800140c:	841a      	strh	r2, [r3, #32]
  
  /* Get the TIMx CCER register value */
  tmpccer = TIMx->CCER;
 800140e:	687b      	ldr	r3, [r7, #4]
 8001410:	8c1b      	ldrh	r3, [r3, #32]
 8001412:	81fb      	strh	r3, [r7, #14]
  /* Get the TIMx CR2 register value */
  tmpcr2 =  TIMx->CR2;
 8001414:	687b      	ldr	r3, [r7, #4]
 8001416:	889b      	ldrh	r3, [r3, #4]
 8001418:	81bb      	strh	r3, [r7, #12]
  
  /* Get the TIMx CCMR1 register value */
  tmpccmrx = TIMx->CCMR1;
 800141a:	687b      	ldr	r3, [r7, #4]
 800141c:	8b1b      	ldrh	r3, [r3, #24]
 800141e:	817b      	strh	r3, [r7, #10]
    
  /* Reset the Output Compare Mode Bits */
  tmpccmrx &= (uint16_t)~TIM_CCMR1_OC1M;
 8001420:	897b      	ldrh	r3, [r7, #10]
 8001422:	f023 0370 	bic.w	r3, r3, #112	; 0x70
 8001426:	817b      	strh	r3, [r7, #10]
  tmpccmrx &= (uint16_t)~TIM_CCMR1_CC1S;
 8001428:	897b      	ldrh	r3, [r7, #10]
 800142a:	f023 0303 	bic.w	r3, r3, #3
 800142e:	817b      	strh	r3, [r7, #10]
  /* Select the Output Compare Mode */
  tmpccmrx |= TIM_OCInitStruct->TIM_OCMode;
 8001430:	683b      	ldr	r3, [r7, #0]
 8001432:	881a      	ldrh	r2, [r3, #0]
 8001434:	897b      	ldrh	r3, [r7, #10]
 8001436:	4313      	orrs	r3, r2
 8001438:	817b      	strh	r3, [r7, #10]
  
  /* Reset the Output Polarity level */
  tmpccer &= (uint16_t)~TIM_CCER_CC1P;
 800143a:	89fb      	ldrh	r3, [r7, #14]
 800143c:	f023 0302 	bic.w	r3, r3, #2
 8001440:	81fb      	strh	r3, [r7, #14]
  /* Set the Output Compare Polarity */
  tmpccer |= TIM_OCInitStruct->TIM_OCPolarity;
 8001442:	683b      	ldr	r3, [r7, #0]
 8001444:	899a      	ldrh	r2, [r3, #12]
 8001446:	89fb      	ldrh	r3, [r7, #14]
 8001448:	4313      	orrs	r3, r2
 800144a:	81fb      	strh	r3, [r7, #14]
  
  /* Set the Output State */
  tmpccer |= TIM_OCInitStruct->TIM_OutputState;
 800144c:	683b      	ldr	r3, [r7, #0]
 800144e:	885a      	ldrh	r2, [r3, #2]
 8001450:	89fb      	ldrh	r3, [r7, #14]
 8001452:	4313      	orrs	r3, r2
 8001454:	81fb      	strh	r3, [r7, #14]
    
  if((TIMx == TIM1) || (TIMx == TIM8))
 8001456:	687b      	ldr	r3, [r7, #4]
 8001458:	4a1e      	ldr	r2, [pc, #120]	; (80014d4 <TIM_OC1Init+0xec>)
 800145a:	4293      	cmp	r3, r2
 800145c:	d003      	beq.n	8001466 <TIM_OC1Init+0x7e>
 800145e:	687b      	ldr	r3, [r7, #4]
 8001460:	4a1d      	ldr	r2, [pc, #116]	; (80014d8 <TIM_OC1Init+0xf0>)
 8001462:	4293      	cmp	r3, r2
 8001464:	d123      	bne.n	80014ae <TIM_OC1Init+0xc6>
    assert_param(IS_TIM_OCN_POLARITY(TIM_OCInitStruct->TIM_OCNPolarity));
    assert_param(IS_TIM_OCNIDLE_STATE(TIM_OCInitStruct->TIM_OCNIdleState));
    assert_param(IS_TIM_OCIDLE_STATE(TIM_OCInitStruct->TIM_OCIdleState));
    
    /* Reset the Output N Polarity level */
    tmpccer &= (uint16_t)~TIM_CCER_CC1NP;
 8001466:	89fb      	ldrh	r3, [r7, #14]
 8001468:	f023 0308 	bic.w	r3, r3, #8
 800146c:	81fb      	strh	r3, [r7, #14]
    /* Set the Output N Polarity */
    tmpccer |= TIM_OCInitStruct->TIM_OCNPolarity;
 800146e:	683b      	ldr	r3, [r7, #0]
 8001470:	89da      	ldrh	r2, [r3, #14]
 8001472:	89fb      	ldrh	r3, [r7, #14]
 8001474:	4313      	orrs	r3, r2
 8001476:	81fb      	strh	r3, [r7, #14]
    /* Reset the Output N State */
    tmpccer &= (uint16_t)~TIM_CCER_CC1NE;
 8001478:	89fb      	ldrh	r3, [r7, #14]
 800147a:	f023 0304 	bic.w	r3, r3, #4
 800147e:	81fb      	strh	r3, [r7, #14]
    
    /* Set the Output N State */
    tmpccer |= TIM_OCInitStruct->TIM_OutputNState;
 8001480:	683b      	ldr	r3, [r7, #0]
 8001482:	889a      	ldrh	r2, [r3, #4]
 8001484:	89fb      	ldrh	r3, [r7, #14]
 8001486:	4313      	orrs	r3, r2
 8001488:	81fb      	strh	r3, [r7, #14]
    /* Reset the Output Compare and Output Compare N IDLE State */
    tmpcr2 &= (uint16_t)~TIM_CR2_OIS1;
 800148a:	89bb      	ldrh	r3, [r7, #12]
 800148c:	f423 7380 	bic.w	r3, r3, #256	; 0x100
 8001490:	81bb      	strh	r3, [r7, #12]
    tmpcr2 &= (uint16_t)~TIM_CR2_OIS1N;
 8001492:	89bb      	ldrh	r3, [r7, #12]
 8001494:	f423 7300 	bic.w	r3, r3, #512	; 0x200
 8001498:	81bb      	strh	r3, [r7, #12]
    /* Set the Output Idle state */
    tmpcr2 |= TIM_OCInitStruct->TIM_OCIdleState;
 800149a:	683b      	ldr	r3, [r7, #0]
 800149c:	8a1a      	ldrh	r2, [r3, #16]
 800149e:	89bb      	ldrh	r3, [r7, #12]
 80014a0:	4313      	orrs	r3, r2
 80014a2:	81bb      	strh	r3, [r7, #12]
    /* Set the Output N Idle state */
    tmpcr2 |= TIM_OCInitStruct->TIM_OCNIdleState;
 80014a4:	683b      	ldr	r3, [r7, #0]
 80014a6:	8a5a      	ldrh	r2, [r3, #18]
 80014a8:	89bb      	ldrh	r3, [r7, #12]
 80014aa:	4313      	orrs	r3, r2
 80014ac:	81bb      	strh	r3, [r7, #12]
  }
  /* Write to TIMx CR2 */
  TIMx->CR2 = tmpcr2;
 80014ae:	687b      	ldr	r3, [r7, #4]
 80014b0:	89ba      	ldrh	r2, [r7, #12]
 80014b2:	809a      	strh	r2, [r3, #4]
  
  /* Write to TIMx CCMR1 */
  TIMx->CCMR1 = tmpccmrx;
 80014b4:	687b      	ldr	r3, [r7, #4]
 80014b6:	897a      	ldrh	r2, [r7, #10]
 80014b8:	831a      	strh	r2, [r3, #24]
  
  /* Set the Capture Compare Register value */
  TIMx->CCR1 = TIM_OCInitStruct->TIM_Pulse;
 80014ba:	683b      	ldr	r3, [r7, #0]
 80014bc:	689a      	ldr	r2, [r3, #8]
 80014be:	687b      	ldr	r3, [r7, #4]
 80014c0:	635a      	str	r2, [r3, #52]	; 0x34
  
  /* Write to TIMx CCER */
  TIMx->CCER = tmpccer;
 80014c2:	687b      	ldr	r3, [r7, #4]
 80014c4:	89fa      	ldrh	r2, [r7, #14]
 80014c6:	841a      	strh	r2, [r3, #32]
}
 80014c8:	bf00      	nop
 80014ca:	3714      	adds	r7, #20
 80014cc:	46bd      	mov	sp, r7
 80014ce:	f85d 7b04 	ldr.w	r7, [sp], #4
 80014d2:	4770      	bx	lr
 80014d4:	40010000 	.word	0x40010000
 80014d8:	40010400 	.word	0x40010400

080014dc <TIM_OC2Init>:
  * @param  TIM_OCInitStruct: pointer to a TIM_OCInitTypeDef structure that contains
  *         the configuration information for the specified TIM peripheral.
  * @retval None
  */
void TIM_OC2Init(TIM_TypeDef* TIMx, TIM_OCInitTypeDef* TIM_OCInitStruct)
{
 80014dc:	b480      	push	{r7}
 80014de:	b085      	sub	sp, #20
 80014e0:	af00      	add	r7, sp, #0
 80014e2:	6078      	str	r0, [r7, #4]
 80014e4:	6039      	str	r1, [r7, #0]
  uint16_t tmpccmrx = 0, tmpccer = 0, tmpcr2 = 0;
 80014e6:	2300      	movs	r3, #0
 80014e8:	817b      	strh	r3, [r7, #10]
 80014ea:	2300      	movs	r3, #0
 80014ec:	81fb      	strh	r3, [r7, #14]
 80014ee:	2300      	movs	r3, #0
 80014f0:	81bb      	strh	r3, [r7, #12]
  assert_param(IS_TIM_OC_MODE(TIM_OCInitStruct->TIM_OCMode));
  assert_param(IS_TIM_OUTPUT_STATE(TIM_OCInitStruct->TIM_OutputState));
  assert_param(IS_TIM_OC_POLARITY(TIM_OCInitStruct->TIM_OCPolarity));   

  /* Disable the Channel 2: Reset the CC2E Bit */
  TIMx->CCER &= (uint16_t)~TIM_CCER_CC2E;
 80014f2:	687b      	ldr	r3, [r7, #4]
 80014f4:	8c1b      	ldrh	r3, [r3, #32]
 80014f6:	b29b      	uxth	r3, r3
 80014f8:	f023 0310 	bic.w	r3, r3, #16
 80014fc:	b29a      	uxth	r2, r3
 80014fe:	687b      	ldr	r3, [r7, #4]
 8001500:	841a      	strh	r2, [r3, #32]
  
  /* Get the TIMx CCER register value */  
  tmpccer = TIMx->CCER;
 8001502:	687b      	ldr	r3, [r7, #4]
 8001504:	8c1b      	ldrh	r3, [r3, #32]
 8001506:	81fb      	strh	r3, [r7, #14]
  /* Get the TIMx CR2 register value */
  tmpcr2 =  TIMx->CR2;
 8001508:	687b      	ldr	r3, [r7, #4]
 800150a:	889b      	ldrh	r3, [r3, #4]
 800150c:	81bb      	strh	r3, [r7, #12]
  
  /* Get the TIMx CCMR1 register value */
  tmpccmrx = TIMx->CCMR1;
 800150e:	687b      	ldr	r3, [r7, #4]
 8001510:	8b1b      	ldrh	r3, [r3, #24]
 8001512:	817b      	strh	r3, [r7, #10]
    
  /* Reset the Output Compare mode and Capture/Compare selection Bits */
  tmpccmrx &= (uint16_t)~TIM_CCMR1_OC2M;
 8001514:	897b      	ldrh	r3, [r7, #10]
 8001516:	f423 43e0 	bic.w	r3, r3, #28672	; 0x7000
 800151a:	817b      	strh	r3, [r7, #10]
  tmpccmrx &= (uint16_t)~TIM_CCMR1_CC2S;
 800151c:	897b      	ldrh	r3, [r7, #10]
 800151e:	f423 7340 	bic.w	r3, r3, #768	; 0x300
 8001522:	817b      	strh	r3, [r7, #10]
  
  /* Select the Output Compare Mode */
  tmpccmrx |= (uint16_t)(TIM_OCInitStruct->TIM_OCMode << 8);
 8001524:	683b      	ldr	r3, [r7, #0]
 8001526:	881b      	ldrh	r3, [r3, #0]
 8001528:	021b      	lsls	r3, r3, #8
 800152a:	b29a      	uxth	r2, r3
 800152c:	897b      	ldrh	r3, [r7, #10]
 800152e:	4313      	orrs	r3, r2
 8001530:	817b      	strh	r3, [r7, #10]
  
  /* Reset the Output Polarity level */
  tmpccer &= (uint16_t)~TIM_CCER_CC2P;
 8001532:	89fb      	ldrh	r3, [r7, #14]
 8001534:	f023 0320 	bic.w	r3, r3, #32
 8001538:	81fb      	strh	r3, [r7, #14]
  /* Set the Output Compare Polarity */
  tmpccer |= (uint16_t)(TIM_OCInitStruct->TIM_OCPolarity << 4);
 800153a:	683b      	ldr	r3, [r7, #0]
 800153c:	899b      	ldrh	r3, [r3, #12]
 800153e:	011b      	lsls	r3, r3, #4
 8001540:	b29a      	uxth	r2, r3
 8001542:	89fb      	ldrh	r3, [r7, #14]
 8001544:	4313      	orrs	r3, r2
 8001546:	81fb      	strh	r3, [r7, #14]
  
  /* Set the Output State */
  tmpccer |= (uint16_t)(TIM_OCInitStruct->TIM_OutputState << 4);
 8001548:	683b      	ldr	r3, [r7, #0]
 800154a:	885b      	ldrh	r3, [r3, #2]
 800154c:	011b      	lsls	r3, r3, #4
 800154e:	b29a      	uxth	r2, r3
 8001550:	89fb      	ldrh	r3, [r7, #14]
 8001552:	4313      	orrs	r3, r2
 8001554:	81fb      	strh	r3, [r7, #14]
    
  if((TIMx == TIM1) || (TIMx == TIM8))
 8001556:	687b      	ldr	r3, [r7, #4]
 8001558:	4a22      	ldr	r2, [pc, #136]	; (80015e4 <TIM_OC2Init+0x108>)
 800155a:	4293      	cmp	r3, r2
 800155c:	d003      	beq.n	8001566 <TIM_OC2Init+0x8a>
 800155e:	687b      	ldr	r3, [r7, #4]
 8001560:	4a21      	ldr	r2, [pc, #132]	; (80015e8 <TIM_OC2Init+0x10c>)
 8001562:	4293      	cmp	r3, r2
 8001564:	d12b      	bne.n	80015be <TIM_OC2Init+0xe2>
    assert_param(IS_TIM_OCN_POLARITY(TIM_OCInitStruct->TIM_OCNPolarity));
    assert_param(IS_TIM_OCNIDLE_STATE(TIM_OCInitStruct->TIM_OCNIdleState));
    assert_param(IS_TIM_OCIDLE_STATE(TIM_OCInitStruct->TIM_OCIdleState));
    
    /* Reset the Output N Polarity level */
    tmpccer &= (uint16_t)~TIM_CCER_CC2NP;
 8001566:	89fb      	ldrh	r3, [r7, #14]
 8001568:	f023 0380 	bic.w	r3, r3, #128	; 0x80
 800156c:	81fb      	strh	r3, [r7, #14]
    /* Set the Output N Polarity */
    tmpccer |= (uint16_t)(TIM_OCInitStruct->TIM_OCNPolarity << 4);
 800156e:	683b      	ldr	r3, [r7, #0]
 8001570:	89db      	ldrh	r3, [r3, #14]
 8001572:	011b      	lsls	r3, r3, #4
 8001574:	b29a      	uxth	r2, r3
 8001576:	89fb      	ldrh	r3, [r7, #14]
 8001578:	4313      	orrs	r3, r2
 800157a:	81fb      	strh	r3, [r7, #14]
    /* Reset the Output N State */
    tmpccer &= (uint16_t)~TIM_CCER_CC2NE;
 800157c:	89fb      	ldrh	r3, [r7, #14]
 800157e:	f023 0340 	bic.w	r3, r3, #64	; 0x40
 8001582:	81fb      	strh	r3, [r7, #14]
    
    /* Set the Output N State */
    tmpccer |= (uint16_t)(TIM_OCInitStruct->TIM_OutputNState << 4);
 8001584:	683b      	ldr	r3, [r7, #0]
 8001586:	889b      	ldrh	r3, [r3, #4]
 8001588:	011b      	lsls	r3, r3, #4
 800158a:	b29a      	uxth	r2, r3
 800158c:	89fb      	ldrh	r3, [r7, #14]
 800158e:	4313      	orrs	r3, r2
 8001590:	81fb      	strh	r3, [r7, #14]
    /* Reset the Output Compare and Output Compare N IDLE State */
    tmpcr2 &= (uint16_t)~TIM_CR2_OIS2;
 8001592:	89bb      	ldrh	r3, [r7, #12]
 8001594:	f423 6380 	bic.w	r3, r3, #1024	; 0x400
 8001598:	81bb      	strh	r3, [r7, #12]
    tmpcr2 &= (uint16_t)~TIM_CR2_OIS2N;
 800159a:	89bb      	ldrh	r3, [r7, #12]
 800159c:	f423 6300 	bic.w	r3, r3, #2048	; 0x800
 80015a0:	81bb      	strh	r3, [r7, #12]
    /* Set the Output Idle state */
    tmpcr2 |= (uint16_t)(TIM_OCInitStruct->TIM_OCIdleState << 2);
 80015a2:	683b      	ldr	r3, [r7, #0]
 80015a4:	8a1b      	ldrh	r3, [r3, #16]
 80015a6:	009b      	lsls	r3, r3, #2
 80015a8:	b29a      	uxth	r2, r3
 80015aa:	89bb      	ldrh	r3, [r7, #12]
 80015ac:	4313      	orrs	r3, r2
 80015ae:	81bb      	strh	r3, [r7, #12]
    /* Set the Output N Idle state */
    tmpcr2 |= (uint16_t)(TIM_OCInitStruct->TIM_OCNIdleState << 2);
 80015b0:	683b      	ldr	r3, [r7, #0]
 80015b2:	8a5b      	ldrh	r3, [r3, #18]
 80015b4:	009b      	lsls	r3, r3, #2
 80015b6:	b29a      	uxth	r2, r3
 80015b8:	89bb      	ldrh	r3, [r7, #12]
 80015ba:	4313      	orrs	r3, r2
 80015bc:	81bb      	strh	r3, [r7, #12]
  }
  /* Write to TIMx CR2 */
  TIMx->CR2 = tmpcr2;
 80015be:	687b      	ldr	r3, [r7, #4]
 80015c0:	89ba      	ldrh	r2, [r7, #12]
 80015c2:	809a      	strh	r2, [r3, #4]
  
  /* Write to TIMx CCMR1 */
  TIMx->CCMR1 = tmpccmrx;
 80015c4:	687b      	ldr	r3, [r7, #4]
 80015c6:	897a      	ldrh	r2, [r7, #10]
 80015c8:	831a      	strh	r2, [r3, #24]
  
  /* Set the Capture Compare Register value */
  TIMx->CCR2 = TIM_OCInitStruct->TIM_Pulse;
 80015ca:	683b      	ldr	r3, [r7, #0]
 80015cc:	689a      	ldr	r2, [r3, #8]
 80015ce:	687b      	ldr	r3, [r7, #4]
 80015d0:	639a      	str	r2, [r3, #56]	; 0x38
  
  /* Write to TIMx CCER */
  TIMx->CCER = tmpccer;
 80015d2:	687b      	ldr	r3, [r7, #4]
 80015d4:	89fa      	ldrh	r2, [r7, #14]
 80015d6:	841a      	strh	r2, [r3, #32]
}
 80015d8:	bf00      	nop
 80015da:	3714      	adds	r7, #20
 80015dc:	46bd      	mov	sp, r7
 80015de:	f85d 7b04 	ldr.w	r7, [sp], #4
 80015e2:	4770      	bx	lr
 80015e4:	40010000 	.word	0x40010000
 80015e8:	40010400 	.word	0x40010400

080015ec <TIM_OC3Init>:
  * @param  TIM_OCInitStruct: pointer to a TIM_OCInitTypeDef structure that contains
  *         the configuration information for the specified TIM peripheral.
  * @retval None
  */
void TIM_OC3Init(TIM_TypeDef* TIMx, TIM_OCInitTypeDef* TIM_OCInitStruct)
{
 80015ec:	b480      	push	{r7}
 80015ee:	b085      	sub	sp, #20
 80015f0:	af00      	add	r7, sp, #0
 80015f2:	6078      	str	r0, [r7, #4]
 80015f4:	6039      	str	r1, [r7, #0]
  uint16_t tmpccmrx = 0, tmpccer = 0, tmpcr2 = 0;
 80015f6:	2300      	movs	r3, #0
 80015f8:	817b      	strh	r3, [r7, #10]
 80015fa:	2300      	movs	r3, #0
 80015fc:	81fb      	strh	r3, [r7, #14]
 80015fe:	2300      	movs	r3, #0
 8001600:	81bb      	strh	r3, [r7, #12]
  assert_param(IS_TIM_OC_MODE(TIM_OCInitStruct->TIM_OCMode));
  assert_param(IS_TIM_OUTPUT_STATE(TIM_OCInitStruct->TIM_OutputState));
  assert_param(IS_TIM_OC_POLARITY(TIM_OCInitStruct->TIM_OCPolarity));   

  /* Disable the Channel 3: Reset the CC2E Bit */
  TIMx->CCER &= (uint16_t)~TIM_CCER_CC3E;
 8001602:	687b      	ldr	r3, [r7, #4]
 8001604:	8c1b      	ldrh	r3, [r3, #32]
 8001606:	b29b      	uxth	r3, r3
 8001608:	f423 7380 	bic.w	r3, r3, #256	; 0x100
 800160c:	b29a      	uxth	r2, r3
 800160e:	687b      	ldr	r3, [r7, #4]
 8001610:	841a      	strh	r2, [r3, #32]
  
  /* Get the TIMx CCER register value */
  tmpccer = TIMx->CCER;
 8001612:	687b      	ldr	r3, [r7, #4]
 8001614:	8c1b      	ldrh	r3, [r3, #32]
 8001616:	81fb      	strh	r3, [r7, #14]
  /* Get the TIMx CR2 register value */
  tmpcr2 =  TIMx->CR2;
 8001618:	687b      	ldr	r3, [r7, #4]
 800161a:	889b      	ldrh	r3, [r3, #4]
 800161c:	81bb      	strh	r3, [r7, #12]
  
  /* Get the TIMx CCMR2 register value */
  tmpccmrx = TIMx->CCMR2;
 800161e:	687b      	ldr	r3, [r7, #4]
 8001620:	8b9b      	ldrh	r3, [r3, #28]
 8001622:	817b      	strh	r3, [r7, #10]
    
  /* Reset the Output Compare mode and Capture/Compare selection Bits */
  tmpccmrx &= (uint16_t)~TIM_CCMR2_OC3M;
 8001624:	897b      	ldrh	r3, [r7, #10]
 8001626:	f023 0370 	bic.w	r3, r3, #112	; 0x70
 800162a:	817b      	strh	r3, [r7, #10]
  tmpccmrx &= (uint16_t)~TIM_CCMR2_CC3S;  
 800162c:	897b      	ldrh	r3, [r7, #10]
 800162e:	f023 0303 	bic.w	r3, r3, #3
 8001632:	817b      	strh	r3, [r7, #10]
  /* Select the Output Compare Mode */
  tmpccmrx |= TIM_OCInitStruct->TIM_OCMode;
 8001634:	683b      	ldr	r3, [r7, #0]
 8001636:	881a      	ldrh	r2, [r3, #0]
 8001638:	897b      	ldrh	r3, [r7, #10]
 800163a:	4313      	orrs	r3, r2
 800163c:	817b      	strh	r3, [r7, #10]
  
  /* Reset the Output Polarity level */
  tmpccer &= (uint16_t)~TIM_CCER_CC3P;
 800163e:	89fb      	ldrh	r3, [r7, #14]
 8001640:	f423 7300 	bic.w	r3, r3, #512	; 0x200
 8001644:	81fb      	strh	r3, [r7, #14]
  /* Set the Output Compare Polarity */
  tmpccer |= (uint16_t)(TIM_OCInitStruct->TIM_OCPolarity << 8);
 8001646:	683b      	ldr	r3, [r7, #0]
 8001648:	899b      	ldrh	r3, [r3, #12]
 800164a:	021b      	lsls	r3, r3, #8
 800164c:	b29a      	uxth	r2, r3
 800164e:	89fb      	ldrh	r3, [r7, #14]
 8001650:	4313      	orrs	r3, r2
 8001652:	81fb      	strh	r3, [r7, #14]
  
  /* Set the Output State */
  tmpccer |= (uint16_t)(TIM_OCInitStruct->TIM_OutputState << 8);
 8001654:	683b      	ldr	r3, [r7, #0]
 8001656:	885b      	ldrh	r3, [r3, #2]
 8001658:	021b      	lsls	r3, r3, #8
 800165a:	b29a      	uxth	r2, r3
 800165c:	89fb      	ldrh	r3, [r7, #14]
 800165e:	4313      	orrs	r3, r2
 8001660:	81fb      	strh	r3, [r7, #14]
    
  if((TIMx == TIM1) || (TIMx == TIM8))
 8001662:	687b      	ldr	r3, [r7, #4]
 8001664:	4a22      	ldr	r2, [pc, #136]	; (80016f0 <TIM_OC3Init+0x104>)
 8001666:	4293      	cmp	r3, r2
 8001668:	d003      	beq.n	8001672 <TIM_OC3Init+0x86>
 800166a:	687b      	ldr	r3, [r7, #4]
 800166c:	4a21      	ldr	r2, [pc, #132]	; (80016f4 <TIM_OC3Init+0x108>)
 800166e:	4293      	cmp	r3, r2
 8001670:	d12b      	bne.n	80016ca <TIM_OC3Init+0xde>
    assert_param(IS_TIM_OCN_POLARITY(TIM_OCInitStruct->TIM_OCNPolarity));
    assert_param(IS_TIM_OCNIDLE_STATE(TIM_OCInitStruct->TIM_OCNIdleState));
    assert_param(IS_TIM_OCIDLE_STATE(TIM_OCInitStruct->TIM_OCIdleState));
    
    /* Reset the Output N Polarity level */
    tmpccer &= (uint16_t)~TIM_CCER_CC3NP;
 8001672:	89fb      	ldrh	r3, [r7, #14]
 8001674:	f423 6300 	bic.w	r3, r3, #2048	; 0x800
 8001678:	81fb      	strh	r3, [r7, #14]
    /* Set the Output N Polarity */
    tmpccer |= (uint16_t)(TIM_OCInitStruct->TIM_OCNPolarity << 8);
 800167a:	683b      	ldr	r3, [r7, #0]
 800167c:	89db      	ldrh	r3, [r3, #14]
 800167e:	021b      	lsls	r3, r3, #8
 8001680:	b29a      	uxth	r2, r3
 8001682:	89fb      	ldrh	r3, [r7, #14]
 8001684:	4313      	orrs	r3, r2
 8001686:	81fb      	strh	r3, [r7, #14]
    /* Reset the Output N State */
    tmpccer &= (uint16_t)~TIM_CCER_CC3NE;
 8001688:	89fb      	ldrh	r3, [r7, #14]
 800168a:	f423 6380 	bic.w	r3, r3, #1024	; 0x400
 800168e:	81fb      	strh	r3, [r7, #14]
    
    /* Set the Output N State */
    tmpccer |= (uint16_t)(TIM_OCInitStruct->TIM_OutputNState << 8);
 8001690:	683b      	ldr	r3, [r7, #0]
 8001692:	889b      	ldrh	r3, [r3, #4]
 8001694:	021b      	lsls	r3, r3, #8
 8001696:	b29a      	uxth	r2, r3
 8001698:	89fb      	ldrh	r3, [r7, #14]
 800169a:	4313      	orrs	r3, r2
 800169c:	81fb      	strh	r3, [r7, #14]
    /* Reset the Output Compare and Output Compare N IDLE State */
    tmpcr2 &= (uint16_t)~TIM_CR2_OIS3;
 800169e:	89bb      	ldrh	r3, [r7, #12]
 80016a0:	f423 5380 	bic.w	r3, r3, #4096	; 0x1000
 80016a4:	81bb      	strh	r3, [r7, #12]
    tmpcr2 &= (uint16_t)~TIM_CR2_OIS3N;
 80016a6:	89bb      	ldrh	r3, [r7, #12]
 80016a8:	f423 5300 	bic.w	r3, r3, #8192	; 0x2000
 80016ac:	81bb      	strh	r3, [r7, #12]
    /* Set the Output Idle state */
    tmpcr2 |= (uint16_t)(TIM_OCInitStruct->TIM_OCIdleState << 4);
 80016ae:	683b      	ldr	r3, [r7, #0]
 80016b0:	8a1b      	ldrh	r3, [r3, #16]
 80016b2:	011b      	lsls	r3, r3, #4
 80016b4:	b29a      	uxth	r2, r3
 80016b6:	89bb      	ldrh	r3, [r7, #12]
 80016b8:	4313      	orrs	r3, r2
 80016ba:	81bb      	strh	r3, [r7, #12]
    /* Set the Output N Idle state */
    tmpcr2 |= (uint16_t)(TIM_OCInitStruct->TIM_OCNIdleState << 4);
 80016bc:	683b      	ldr	r3, [r7, #0]
 80016be:	8a5b      	ldrh	r3, [r3, #18]
 80016c0:	011b      	lsls	r3, r3, #4
 80016c2:	b29a      	uxth	r2, r3
 80016c4:	89bb      	ldrh	r3, [r7, #12]
 80016c6:	4313      	orrs	r3, r2
 80016c8:	81bb      	strh	r3, [r7, #12]
  }
  /* Write to TIMx CR2 */
  TIMx->CR2 = tmpcr2;
 80016ca:	687b      	ldr	r3, [r7, #4]
 80016cc:	89ba      	ldrh	r2, [r7, #12]
 80016ce:	809a      	strh	r2, [r3, #4]
  
  /* Write to TIMx CCMR2 */
  TIMx->CCMR2 = tmpccmrx;
 80016d0:	687b      	ldr	r3, [r7, #4]
 80016d2:	897a      	ldrh	r2, [r7, #10]
 80016d4:	839a      	strh	r2, [r3, #28]
  
  /* Set the Capture Compare Register value */
  TIMx->CCR3 = TIM_OCInitStruct->TIM_Pulse;
 80016d6:	683b      	ldr	r3, [r7, #0]
 80016d8:	689a      	ldr	r2, [r3, #8]
 80016da:	687b      	ldr	r3, [r7, #4]
 80016dc:	63da      	str	r2, [r3, #60]	; 0x3c
  
  /* Write to TIMx CCER */
  TIMx->CCER = tmpccer;
 80016de:	687b      	ldr	r3, [r7, #4]
 80016e0:	89fa      	ldrh	r2, [r7, #14]
 80016e2:	841a      	strh	r2, [r3, #32]
}
 80016e4:	bf00      	nop
 80016e6:	3714      	adds	r7, #20
 80016e8:	46bd      	mov	sp, r7
 80016ea:	f85d 7b04 	ldr.w	r7, [sp], #4
 80016ee:	4770      	bx	lr
 80016f0:	40010000 	.word	0x40010000
 80016f4:	40010400 	.word	0x40010400

080016f8 <TIM_OC4Init>:
  * @param  TIM_OCInitStruct: pointer to a TIM_OCInitTypeDef structure that contains
  *         the configuration information for the specified TIM peripheral.
  * @retval None
  */
void TIM_OC4Init(TIM_TypeDef* TIMx, TIM_OCInitTypeDef* TIM_OCInitStruct)
{
 80016f8:	b480      	push	{r7}
 80016fa:	b085      	sub	sp, #20
 80016fc:	af00      	add	r7, sp, #0
 80016fe:	6078      	str	r0, [r7, #4]
 8001700:	6039      	str	r1, [r7, #0]
  uint16_t tmpccmrx = 0, tmpccer = 0, tmpcr2 = 0;
 8001702:	2300      	movs	r3, #0
 8001704:	81bb      	strh	r3, [r7, #12]
 8001706:	2300      	movs	r3, #0
 8001708:	817b      	strh	r3, [r7, #10]
 800170a:	2300      	movs	r3, #0
 800170c:	81fb      	strh	r3, [r7, #14]
  assert_param(IS_TIM_OC_MODE(TIM_OCInitStruct->TIM_OCMode));
  assert_param(IS_TIM_OUTPUT_STATE(TIM_OCInitStruct->TIM_OutputState));
  assert_param(IS_TIM_OC_POLARITY(TIM_OCInitStruct->TIM_OCPolarity));   

  /* Disable the Channel 4: Reset the CC4E Bit */
  TIMx->CCER &= (uint16_t)~TIM_CCER_CC4E;
 800170e:	687b      	ldr	r3, [r7, #4]
 8001710:	8c1b      	ldrh	r3, [r3, #32]
 8001712:	b29b      	uxth	r3, r3
 8001714:	f423 5380 	bic.w	r3, r3, #4096	; 0x1000
 8001718:	b29a      	uxth	r2, r3
 800171a:	687b      	ldr	r3, [r7, #4]
 800171c:	841a      	strh	r2, [r3, #32]
  
  /* Get the TIMx CCER register value */
  tmpccer = TIMx->CCER;
 800171e:	687b      	ldr	r3, [r7, #4]
 8001720:	8c1b      	ldrh	r3, [r3, #32]
 8001722:	817b      	strh	r3, [r7, #10]
  /* Get the TIMx CR2 register value */
  tmpcr2 =  TIMx->CR2;
 8001724:	687b      	ldr	r3, [r7, #4]
 8001726:	889b      	ldrh	r3, [r3, #4]
 8001728:	81fb      	strh	r3, [r7, #14]
  
  /* Get the TIMx CCMR2 register value */
  tmpccmrx = TIMx->CCMR2;
 800172a:	687b      	ldr	r3, [r7, #4]
 800172c:	8b9b      	ldrh	r3, [r3, #28]
 800172e:	81bb      	strh	r3, [r7, #12]
    
  /* Reset the Output Compare mode and Capture/Compare selection Bits */
  tmpccmrx &= (uint16_t)~TIM_CCMR2_OC4M;
 8001730:	89bb      	ldrh	r3, [r7, #12]
 8001732:	f423 43e0 	bic.w	r3, r3, #28672	; 0x7000
 8001736:	81bb      	strh	r3, [r7, #12]
  tmpccmrx &= (uint16_t)~TIM_CCMR2_CC4S;
 8001738:	89bb      	ldrh	r3, [r7, #12]
 800173a:	f423 7340 	bic.w	r3, r3, #768	; 0x300
 800173e:	81bb      	strh	r3, [r7, #12]
  
  /* Select the Output Compare Mode */
  tmpccmrx |= (uint16_t)(TIM_OCInitStruct->TIM_OCMode << 8);
 8001740:	683b      	ldr	r3, [r7, #0]
 8001742:	881b      	ldrh	r3, [r3, #0]
 8001744:	021b      	lsls	r3, r3, #8
 8001746:	b29a      	uxth	r2, r3
 8001748:	89bb      	ldrh	r3, [r7, #12]
 800174a:	4313      	orrs	r3, r2
 800174c:	81bb      	strh	r3, [r7, #12]
  
  /* Reset the Output Polarity level */
  tmpccer &= (uint16_t)~TIM_CCER_CC4P;
 800174e:	897b      	ldrh	r3, [r7, #10]
 8001750:	f423 5300 	bic.w	r3, r3, #8192	; 0x2000
 8001754:	817b      	strh	r3, [r7, #10]
  /* Set the Output Compare Polarity */
  tmpccer |= (uint16_t)(TIM_OCInitStruct->TIM_OCPolarity << 12);
 8001756:	683b      	ldr	r3, [r7, #0]
 8001758:	899b      	ldrh	r3, [r3, #12]
 800175a:	031b      	lsls	r3, r3, #12
 800175c:	b29a      	uxth	r2, r3
 800175e:	897b      	ldrh	r3, [r7, #10]
 8001760:	4313      	orrs	r3, r2
 8001762:	817b      	strh	r3, [r7, #10]
  
  /* Set the Output State */
  tmpccer |= (uint16_t)(TIM_OCInitStruct->TIM_OutputState << 12);
 8001764:	683b      	ldr	r3, [r7, #0]
 8001766:	885b      	ldrh	r3, [r3, #2]
 8001768:	031b      	lsls	r3, r3, #12
 800176a:	b29a      	uxth	r2, r3
 800176c:	897b      	ldrh	r3, [r7, #10]
 800176e:	4313      	orrs	r3, r2
 8001770:	817b      	strh	r3, [r7, #10]
  
  if((TIMx == TIM1) || (TIMx == TIM8))
 8001772:	687b      	ldr	r3, [r7, #4]
 8001774:	4a12      	ldr	r2, [pc, #72]	; (80017c0 <TIM_OC4Init+0xc8>)
 8001776:	4293      	cmp	r3, r2
 8001778:	d003      	beq.n	8001782 <TIM_OC4Init+0x8a>
 800177a:	687b      	ldr	r3, [r7, #4]
 800177c:	4a11      	ldr	r2, [pc, #68]	; (80017c4 <TIM_OC4Init+0xcc>)
 800177e:	4293      	cmp	r3, r2
 8001780:	d10a      	bne.n	8001798 <TIM_OC4Init+0xa0>
  {
    assert_param(IS_TIM_OCIDLE_STATE(TIM_OCInitStruct->TIM_OCIdleState));
    /* Reset the Output Compare IDLE State */
    tmpcr2 &=(uint16_t) ~TIM_CR2_OIS4;
 8001782:	89fb      	ldrh	r3, [r7, #14]
 8001784:	f423 4380 	bic.w	r3, r3, #16384	; 0x4000
 8001788:	81fb      	strh	r3, [r7, #14]
    /* Set the Output Idle state */
    tmpcr2 |= (uint16_t)(TIM_OCInitStruct->TIM_OCIdleState << 6);
 800178a:	683b      	ldr	r3, [r7, #0]
 800178c:	8a1b      	ldrh	r3, [r3, #16]
 800178e:	019b      	lsls	r3, r3, #6
 8001790:	b29a      	uxth	r2, r3
 8001792:	89fb      	ldrh	r3, [r7, #14]
 8001794:	4313      	orrs	r3, r2
 8001796:	81fb      	strh	r3, [r7, #14]
  }
  /* Write to TIMx CR2 */
  TIMx->CR2 = tmpcr2;
 8001798:	687b      	ldr	r3, [r7, #4]
 800179a:	89fa      	ldrh	r2, [r7, #14]
 800179c:	809a      	strh	r2, [r3, #4]
  
  /* Write to TIMx CCMR2 */  
  TIMx->CCMR2 = tmpccmrx;
 800179e:	687b      	ldr	r3, [r7, #4]
 80017a0:	89ba      	ldrh	r2, [r7, #12]
 80017a2:	839a      	strh	r2, [r3, #28]
    
  /* Set the Capture Compare Register value */
  TIMx->CCR4 = TIM_OCInitStruct->TIM_Pulse;
 80017a4:	683b      	ldr	r3, [r7, #0]
 80017a6:	689a      	ldr	r2, [r3, #8]
 80017a8:	687b      	ldr	r3, [r7, #4]
 80017aa:	641a      	str	r2, [r3, #64]	; 0x40
  
  /* Write to TIMx CCER */
  TIMx->CCER = tmpccer;
 80017ac:	687b      	ldr	r3, [r7, #4]
 80017ae:	897a      	ldrh	r2, [r7, #10]
 80017b0:	841a      	strh	r2, [r3, #32]
}
 80017b2:	bf00      	nop
 80017b4:	3714      	adds	r7, #20
 80017b6:	46bd      	mov	sp, r7
 80017b8:	f85d 7b04 	ldr.w	r7, [sp], #4
 80017bc:	4770      	bx	lr
 80017be:	bf00      	nop
 80017c0:	40010000 	.word	0x40010000
 80017c4:	40010400 	.word	0x40010400

080017c8 <TIM_OC1PreloadConfig>:
  *            @arg TIM_OCPreload_Enable
  *            @arg TIM_OCPreload_Disable
  * @retval None
  */
void TIM_OC1PreloadConfig(TIM_TypeDef* TIMx, uint16_t TIM_OCPreload)
{
 80017c8:	b480      	push	{r7}
 80017ca:	b085      	sub	sp, #20
 80017cc:	af00      	add	r7, sp, #0
 80017ce:	6078      	str	r0, [r7, #4]
 80017d0:	460b      	mov	r3, r1
 80017d2:	807b      	strh	r3, [r7, #2]
  uint16_t tmpccmr1 = 0;
 80017d4:	2300      	movs	r3, #0
 80017d6:	81fb      	strh	r3, [r7, #14]

  /* Check the parameters */
  assert_param(IS_TIM_LIST1_PERIPH(TIMx));
  assert_param(IS_TIM_OCPRELOAD_STATE(TIM_OCPreload));

  tmpccmr1 = TIMx->CCMR1;
 80017d8:	687b      	ldr	r3, [r7, #4]
 80017da:	8b1b      	ldrh	r3, [r3, #24]
 80017dc:	81fb      	strh	r3, [r7, #14]

  /* Reset the OC1PE Bit */
  tmpccmr1 &= (uint16_t)(~TIM_CCMR1_OC1PE);
 80017de:	89fb      	ldrh	r3, [r7, #14]
 80017e0:	f023 0308 	bic.w	r3, r3, #8
 80017e4:	81fb      	strh	r3, [r7, #14]

  /* Enable or Disable the Output Compare Preload feature */
  tmpccmr1 |= TIM_OCPreload;
 80017e6:	89fa      	ldrh	r2, [r7, #14]
 80017e8:	887b      	ldrh	r3, [r7, #2]
 80017ea:	4313      	orrs	r3, r2
 80017ec:	81fb      	strh	r3, [r7, #14]

  /* Write to TIMx CCMR1 register */
  TIMx->CCMR1 = tmpccmr1;
 80017ee:	687b      	ldr	r3, [r7, #4]
 80017f0:	89fa      	ldrh	r2, [r7, #14]
 80017f2:	831a      	strh	r2, [r3, #24]
}
 80017f4:	bf00      	nop
 80017f6:	3714      	adds	r7, #20
 80017f8:	46bd      	mov	sp, r7
 80017fa:	f85d 7b04 	ldr.w	r7, [sp], #4
 80017fe:	4770      	bx	lr

08001800 <TIM_OC2PreloadConfig>:
  *            @arg TIM_OCPreload_Enable
  *            @arg TIM_OCPreload_Disable
  * @retval None
  */
void TIM_OC2PreloadConfig(TIM_TypeDef* TIMx, uint16_t TIM_OCPreload)
{
 8001800:	b480      	push	{r7}
 8001802:	b085      	sub	sp, #20
 8001804:	af00      	add	r7, sp, #0
 8001806:	6078      	str	r0, [r7, #4]
 8001808:	460b      	mov	r3, r1
 800180a:	807b      	strh	r3, [r7, #2]
  uint16_t tmpccmr1 = 0;
 800180c:	2300      	movs	r3, #0
 800180e:	81fb      	strh	r3, [r7, #14]

  /* Check the parameters */
  assert_param(IS_TIM_LIST2_PERIPH(TIMx));
  assert_param(IS_TIM_OCPRELOAD_STATE(TIM_OCPreload));

  tmpccmr1 = TIMx->CCMR1;
 8001810:	687b      	ldr	r3, [r7, #4]
 8001812:	8b1b      	ldrh	r3, [r3, #24]
 8001814:	81fb      	strh	r3, [r7, #14]

  /* Reset the OC2PE Bit */
  tmpccmr1 &= (uint16_t)(~TIM_CCMR1_OC2PE);
 8001816:	89fb      	ldrh	r3, [r7, #14]
 8001818:	f423 6300 	bic.w	r3, r3, #2048	; 0x800
 800181c:	81fb      	strh	r3, [r7, #14]

  /* Enable or Disable the Output Compare Preload feature */
  tmpccmr1 |= (uint16_t)(TIM_OCPreload << 8);
 800181e:	887b      	ldrh	r3, [r7, #2]
 8001820:	021b      	lsls	r3, r3, #8
 8001822:	b29a      	uxth	r2, r3
 8001824:	89fb      	ldrh	r3, [r7, #14]
 8001826:	4313      	orrs	r3, r2
 8001828:	81fb      	strh	r3, [r7, #14]

  /* Write to TIMx CCMR1 register */
  TIMx->CCMR1 = tmpccmr1;
 800182a:	687b      	ldr	r3, [r7, #4]
 800182c:	89fa      	ldrh	r2, [r7, #14]
 800182e:	831a      	strh	r2, [r3, #24]
}
 8001830:	bf00      	nop
 8001832:	3714      	adds	r7, #20
 8001834:	46bd      	mov	sp, r7
 8001836:	f85d 7b04 	ldr.w	r7, [sp], #4
 800183a:	4770      	bx	lr

0800183c <TIM_OC3PreloadConfig>:
  *            @arg TIM_OCPreload_Enable
  *            @arg TIM_OCPreload_Disable
  * @retval None
  */
void TIM_OC3PreloadConfig(TIM_TypeDef* TIMx, uint16_t TIM_OCPreload)
{
 800183c:	b480      	push	{r7}
 800183e:	b085      	sub	sp, #20
 8001840:	af00      	add	r7, sp, #0
 8001842:	6078      	str	r0, [r7, #4]
 8001844:	460b      	mov	r3, r1
 8001846:	807b      	strh	r3, [r7, #2]
  uint16_t tmpccmr2 = 0;
 8001848:	2300      	movs	r3, #0
 800184a:	81fb      	strh	r3, [r7, #14]

  /* Check the parameters */
  assert_param(IS_TIM_LIST3_PERIPH(TIMx));
  assert_param(IS_TIM_OCPRELOAD_STATE(TIM_OCPreload));

  tmpccmr2 = TIMx->CCMR2;
 800184c:	687b      	ldr	r3, [r7, #4]
 800184e:	8b9b      	ldrh	r3, [r3, #28]
 8001850:	81fb      	strh	r3, [r7, #14]

  /* Reset the OC3PE Bit */
  tmpccmr2 &= (uint16_t)(~TIM_CCMR2_OC3PE);
 8001852:	89fb      	ldrh	r3, [r7, #14]
 8001854:	f023 0308 	bic.w	r3, r3, #8
 8001858:	81fb      	strh	r3, [r7, #14]

  /* Enable or Disable the Output Compare Preload feature */
  tmpccmr2 |= TIM_OCPreload;
 800185a:	89fa      	ldrh	r2, [r7, #14]
 800185c:	887b      	ldrh	r3, [r7, #2]
 800185e:	4313      	orrs	r3, r2
 8001860:	81fb      	strh	r3, [r7, #14]

  /* Write to TIMx CCMR2 register */
  TIMx->CCMR2 = tmpccmr2;
 8001862:	687b      	ldr	r3, [r7, #4]
 8001864:	89fa      	ldrh	r2, [r7, #14]
 8001866:	839a      	strh	r2, [r3, #28]
}
 8001868:	bf00      	nop
 800186a:	3714      	adds	r7, #20
 800186c:	46bd      	mov	sp, r7
 800186e:	f85d 7b04 	ldr.w	r7, [sp], #4
 8001872:	4770      	bx	lr

08001874 <TIM_OC4PreloadConfig>:
  *            @arg TIM_OCPreload_Enable
  *            @arg TIM_OCPreload_Disable
  * @retval None
  */
void TIM_OC4PreloadConfig(TIM_TypeDef* TIMx, uint16_t TIM_OCPreload)
{
 8001874:	b480      	push	{r7}
 8001876:	b085      	sub	sp, #20
 8001878:	af00      	add	r7, sp, #0
 800187a:	6078      	str	r0, [r7, #4]
 800187c:	460b      	mov	r3, r1
 800187e:	807b      	strh	r3, [r7, #2]
  uint16_t tmpccmr2 = 0;
 8001880:	2300      	movs	r3, #0
 8001882:	81fb      	strh	r3, [r7, #14]

  /* Check the parameters */
  assert_param(IS_TIM_LIST3_PERIPH(TIMx));
  assert_param(IS_TIM_OCPRELOAD_STATE(TIM_OCPreload));

  tmpccmr2 = TIMx->CCMR2;
 8001884:	687b      	ldr	r3, [r7, #4]
 8001886:	8b9b      	ldrh	r3, [r3, #28]
 8001888:	81fb      	strh	r3, [r7, #14]

  /* Reset the OC4PE Bit */
  tmpccmr2 &= (uint16_t)(~TIM_CCMR2_OC4PE);
 800188a:	89fb      	ldrh	r3, [r7, #14]
 800188c:	f423 6300 	bic.w	r3, r3, #2048	; 0x800
 8001890:	81fb      	strh	r3, [r7, #14]

  /* Enable or Disable the Output Compare Preload feature */
  tmpccmr2 |= (uint16_t)(TIM_OCPreload << 8);
 8001892:	887b      	ldrh	r3, [r7, #2]
 8001894:	021b      	lsls	r3, r3, #8
 8001896:	b29a      	uxth	r2, r3
 8001898:	89fb      	ldrh	r3, [r7, #14]
 800189a:	4313      	orrs	r3, r2
 800189c:	81fb      	strh	r3, [r7, #14]

  /* Write to TIMx CCMR2 register */
  TIMx->CCMR2 = tmpccmr2;
 800189e:	687b      	ldr	r3, [r7, #4]
 80018a0:	89fa      	ldrh	r2, [r7, #14]
 80018a2:	839a      	strh	r2, [r3, #28]
}
 80018a4:	bf00      	nop
 80018a6:	3714      	adds	r7, #20
 80018a8:	46bd      	mov	sp, r7
 80018aa:	f85d 7b04 	ldr.w	r7, [sp], #4
 80018ae:	4770      	bx	lr

080018b0 <TIM_CtrlPWMOutputs>:
  * @param  NewState: new state of the TIM peripheral Main Outputs.
  *          This parameter can be: ENABLE or DISABLE.
  * @retval None
  */
void TIM_CtrlPWMOutputs(TIM_TypeDef* TIMx, FunctionalState NewState)
{
 80018b0:	b480      	push	{r7}
 80018b2:	b083      	sub	sp, #12
 80018b4:	af00      	add	r7, sp, #0
 80018b6:	6078      	str	r0, [r7, #4]
 80018b8:	460b      	mov	r3, r1
 80018ba:	70fb      	strb	r3, [r7, #3]
  /* Check the parameters */
  assert_param(IS_TIM_LIST4_PERIPH(TIMx));
  assert_param(IS_FUNCTIONAL_STATE(NewState));

  if (NewState != DISABLE)
 80018bc:	78fb      	ldrb	r3, [r7, #3]
 80018be:	2b00      	cmp	r3, #0
 80018c0:	d00c      	beq.n	80018dc <TIM_CtrlPWMOutputs+0x2c>
  {
    /* Enable the TIM Main Output */
    TIMx->BDTR |= TIM_BDTR_MOE;
 80018c2:	687b      	ldr	r3, [r7, #4]
 80018c4:	f8b3 3044 	ldrh.w	r3, [r3, #68]	; 0x44
 80018c8:	b29b      	uxth	r3, r3
 80018ca:	ea6f 4343 	mvn.w	r3, r3, lsl #17
 80018ce:	ea6f 4353 	mvn.w	r3, r3, lsr #17
 80018d2:	b29a      	uxth	r2, r3
 80018d4:	687b      	ldr	r3, [r7, #4]
 80018d6:	f8a3 2044 	strh.w	r2, [r3, #68]	; 0x44
  else
  {
    /* Disable the TIM Main Output */
    TIMx->BDTR &= (uint16_t)~TIM_BDTR_MOE;
  }  
}
 80018da:	e009      	b.n	80018f0 <TIM_CtrlPWMOutputs+0x40>
    TIMx->BDTR &= (uint16_t)~TIM_BDTR_MOE;
 80018dc:	687b      	ldr	r3, [r7, #4]
 80018de:	f8b3 3044 	ldrh.w	r3, [r3, #68]	; 0x44
 80018e2:	b29b      	uxth	r3, r3
 80018e4:	f3c3 030e 	ubfx	r3, r3, #0, #15
 80018e8:	b29a      	uxth	r2, r3
 80018ea:	687b      	ldr	r3, [r7, #4]
 80018ec:	f8a3 2044 	strh.w	r2, [r3, #68]	; 0x44
}
 80018f0:	bf00      	nop
 80018f2:	370c      	adds	r7, #12
 80018f4:	46bd      	mov	sp, r7
 80018f6:	f85d 7b04 	ldr.w	r7, [sp], #4
 80018fa:	4770      	bx	lr

080018fc <main>:
//Variable para cambiar la frecuencia de operacion del TIM1:
uint32_t Freq = 0;
uint32_t RefreshLCD = 0;

int main(void)
{
 80018fc:	b580      	push	{r7, lr}
 80018fe:	af00      	add	r7, sp, #0
/*------------------------------------------------------------------------------
CONFIGURACION DEL MICRO:
------------------------------------------------------------------------------*/
	SystemInit();
 8001900:	f000 fd92 	bl	8002428 <SystemInit>

	//[1]Inicializacion de interrupcion por tiempo cada 50 mseg:
	INIT_SYSTICK(TimeINT_Systick);
 8001904:	ed9f 0a0c 	vldr	s0, [pc, #48]	; 8001938 <main+0x3c>
 8001908:	f000 f942 	bl	8001b90 <INIT_SYSTICK>

	//Inicializacin de PE9 como OSC1 del TIM1:
	INIT_TIM1(TIM1_OC1_Port, TIM1_OC1);
 800190c:	f44f 7100 	mov.w	r1, #512	; 0x200
 8001910:	480a      	ldr	r0, [pc, #40]	; (800193c <main+0x40>)
 8001912:	f000 f95d 	bl	8001bd0 <INIT_TIM1>

	//Inicializacion del DISPLAY LCD:
	INIT_LCD_2x16(LCD_2X16);
 8001916:	480a      	ldr	r0, [pc, #40]	; (8001940 <main+0x44>)
 8001918:	f000 f8e0 	bl	8001adc <INIT_LCD_2x16>
/*------------------------------------------------------------------------------
BUCLE PRINCIPAL:
------------------------------------------------------------------------------*/
    while(1)
    {
    	if(RefreshTIM1 == Ticks_RefreshTIM1)
 800191c:	4b09      	ldr	r3, [pc, #36]	; (8001944 <main+0x48>)
 800191e:	681b      	ldr	r3, [r3, #0]
 8001920:	2b0a      	cmp	r3, #10
 8001922:	d102      	bne.n	800192a <main+0x2e>
    		REFRESH_TIM1();
 8001924:	f000 f828 	bl	8001978 <REFRESH_TIM1>
 8001928:	e7f8      	b.n	800191c <main+0x20>
    	else if(RefreshLCD == Ticks_RefreshLCD)
 800192a:	4b07      	ldr	r3, [pc, #28]	; (8001948 <main+0x4c>)
 800192c:	681b      	ldr	r3, [r3, #0]
 800192e:	2b04      	cmp	r3, #4
 8001930:	d1f4      	bne.n	800191c <main+0x20>
			REFRESH_LCD();
 8001932:	f000 f83b 	bl	80019ac <REFRESH_LCD>
    	if(RefreshTIM1 == Ticks_RefreshTIM1)
 8001936:	e7f1      	b.n	800191c <main+0x20>
 8001938:	3d4ccccd 	.word	0x3d4ccccd
 800193c:	40021000 	.word	0x40021000
 8001940:	20000010 	.word	0x20000010
 8001944:	20000728 	.word	0x20000728
 8001948:	20000730 	.word	0x20000730

0800194c <SysTick_Handler>:
/*------------------------------------------------------------------------------
INTERRUPCIONES:
------------------------------------------------------------------------------*/
//Interrupcion por tiempo - Systick cada 50mseg:
void SysTick_Handler()
{
 800194c:	b480      	push	{r7}
 800194e:	af00      	add	r7, sp, #0
	RefreshTIM1++;
 8001950:	4b07      	ldr	r3, [pc, #28]	; (8001970 <SysTick_Handler+0x24>)
 8001952:	681b      	ldr	r3, [r3, #0]
 8001954:	3301      	adds	r3, #1
 8001956:	4a06      	ldr	r2, [pc, #24]	; (8001970 <SysTick_Handler+0x24>)
 8001958:	6013      	str	r3, [r2, #0]
	RefreshLCD++;
 800195a:	4b06      	ldr	r3, [pc, #24]	; (8001974 <SysTick_Handler+0x28>)
 800195c:	681b      	ldr	r3, [r3, #0]
 800195e:	3301      	adds	r3, #1
 8001960:	4a04      	ldr	r2, [pc, #16]	; (8001974 <SysTick_Handler+0x28>)
 8001962:	6013      	str	r3, [r2, #0]
}
 8001964:	bf00      	nop
 8001966:	46bd      	mov	sp, r7
 8001968:	f85d 7b04 	ldr.w	r7, [sp], #4
 800196c:	4770      	bx	lr
 800196e:	bf00      	nop
 8001970:	20000728 	.word	0x20000728
 8001974:	20000730 	.word	0x20000730

08001978 <REFRESH_TIM1>:
/*------------------------------------------------------------------------------
TAREAS:
------------------------------------------------------------------------------*/
//Manejo del TIM1:
void REFRESH_TIM1()
{
 8001978:	b580      	push	{r7, lr}
 800197a:	af00      	add	r7, sp, #0
	RefreshTIM1 = 0;
 800197c:	4b08      	ldr	r3, [pc, #32]	; (80019a0 <REFRESH_TIM1+0x28>)
 800197e:	2200      	movs	r2, #0
 8001980:	601a      	str	r2, [r3, #0]
	Freq = 350;
 8001982:	4b08      	ldr	r3, [pc, #32]	; (80019a4 <REFRESH_TIM1+0x2c>)
 8001984:	f44f 72af 	mov.w	r2, #350	; 0x15e
 8001988:	601a      	str	r2, [r3, #0]
	SET_TIM1(TIM1_OC1, TimeBase, Freq, DutyCycle);
 800198a:	4b06      	ldr	r3, [pc, #24]	; (80019a4 <REFRESH_TIM1+0x2c>)
 800198c:	681a      	ldr	r2, [r3, #0]
 800198e:	2332      	movs	r3, #50	; 0x32
 8001990:	4905      	ldr	r1, [pc, #20]	; (80019a8 <REFRESH_TIM1+0x30>)
 8001992:	f44f 7000 	mov.w	r0, #512	; 0x200
 8001996:	f000 f94f 	bl	8001c38 <SET_TIM1>
}
 800199a:	bf00      	nop
 800199c:	bd80      	pop	{r7, pc}
 800199e:	bf00      	nop
 80019a0:	20000728 	.word	0x20000728
 80019a4:	2000072c 	.word	0x2000072c
 80019a8:	00030d40 	.word	0x00030d40

080019ac <REFRESH_LCD>:

//Manejo del LCD:
void REFRESH_LCD()
{
 80019ac:	b590      	push	{r4, r7, lr}
 80019ae:	b091      	sub	sp, #68	; 0x44
 80019b0:	af00      	add	r7, sp, #0
	//Reinicio de los Ticks:
	RefreshLCD = 0;
 80019b2:	4b1d      	ldr	r3, [pc, #116]	; (8001a28 <REFRESH_LCD+0x7c>)
 80019b4:	2200      	movs	r2, #0
 80019b6:	601a      	str	r2, [r3, #0]

	//Refresco del LCD:
	CLEAR_LCD_2x16(LCD_2X16);
 80019b8:	481c      	ldr	r0, [pc, #112]	; (8001a2c <REFRESH_LCD+0x80>)
 80019ba:	f000 f8b7 	bl	8001b2c <CLEAR_LCD_2x16>
	char BufferFreq[BufferLength];
	char BufferVolt[BufferLength];
	char BufferDT[BufferLength];

	//Calculo del voltaje en base al DT:
	float Volt = DutyCycle * 3.3 / 100;
 80019be:	4b1c      	ldr	r3, [pc, #112]	; (8001a30 <REFRESH_LCD+0x84>)
 80019c0:	63fb      	str	r3, [r7, #60]	; 0x3c

	//Mostrar valor de frecuencia:
	sprintf(BufferFreq, "FREQ = %d", Freq);
 80019c2:	4b1c      	ldr	r3, [pc, #112]	; (8001a34 <REFRESH_LCD+0x88>)
 80019c4:	681a      	ldr	r2, [r3, #0]
 80019c6:	f107 0328 	add.w	r3, r7, #40	; 0x28
 80019ca:	491b      	ldr	r1, [pc, #108]	; (8001a38 <REFRESH_LCD+0x8c>)
 80019cc:	4618      	mov	r0, r3
 80019ce:	f000 fe7d 	bl	80026cc <sprintf>
	PRINT_LCD_2x16(LCD_2X16, 3, 0, BufferFreq);
 80019d2:	f107 0328 	add.w	r3, r7, #40	; 0x28
 80019d6:	2200      	movs	r2, #0
 80019d8:	2103      	movs	r1, #3
 80019da:	4814      	ldr	r0, [pc, #80]	; (8001a2c <REFRESH_LCD+0x80>)
 80019dc:	f000 f8b6 	bl	8001b4c <PRINT_LCD_2x16>

	//Mostrar valor del DT:
	sprintf(BufferDT, "DT = %d", DutyCycle);
 80019e0:	463b      	mov	r3, r7
 80019e2:	2232      	movs	r2, #50	; 0x32
 80019e4:	4915      	ldr	r1, [pc, #84]	; (8001a3c <REFRESH_LCD+0x90>)
 80019e6:	4618      	mov	r0, r3
 80019e8:	f000 fe70 	bl	80026cc <sprintf>
	PRINT_LCD_2x16(LCD_2X16, 0, 1, BufferDT);
 80019ec:	463b      	mov	r3, r7
 80019ee:	2201      	movs	r2, #1
 80019f0:	2100      	movs	r1, #0
 80019f2:	480e      	ldr	r0, [pc, #56]	; (8001a2c <REFRESH_LCD+0x80>)
 80019f4:	f000 f8aa 	bl	8001b4c <PRINT_LCD_2x16>

	//Mostrar valor de voltaje:
	sprintf(BufferVolt, "V = %.1f", Volt);
 80019f8:	6bf8      	ldr	r0, [r7, #60]	; 0x3c
 80019fa:	f7fe fdb5 	bl	8000568 <__aeabi_f2d>
 80019fe:	4603      	mov	r3, r0
 8001a00:	460c      	mov	r4, r1
 8001a02:	f107 0014 	add.w	r0, r7, #20
 8001a06:	461a      	mov	r2, r3
 8001a08:	4623      	mov	r3, r4
 8001a0a:	490d      	ldr	r1, [pc, #52]	; (8001a40 <REFRESH_LCD+0x94>)
 8001a0c:	f000 fe5e 	bl	80026cc <sprintf>
	PRINT_LCD_2x16(LCD_2X16, 9, 1, BufferVolt);
 8001a10:	f107 0314 	add.w	r3, r7, #20
 8001a14:	2201      	movs	r2, #1
 8001a16:	2109      	movs	r1, #9
 8001a18:	4804      	ldr	r0, [pc, #16]	; (8001a2c <REFRESH_LCD+0x80>)
 8001a1a:	f000 f897 	bl	8001b4c <PRINT_LCD_2x16>
}
 8001a1e:	bf00      	nop
 8001a20:	3744      	adds	r7, #68	; 0x44
 8001a22:	46bd      	mov	sp, r7
 8001a24:	bd90      	pop	{r4, r7, pc}
 8001a26:	bf00      	nop
 8001a28:	20000730 	.word	0x20000730
 8001a2c:	20000010 	.word	0x20000010
 8001a30:	3fd33333 	.word	0x3fd33333
 8001a34:	2000072c 	.word	0x2000072c
 8001a38:	080054e0 	.word	0x080054e0
 8001a3c:	080054ec 	.word	0x080054ec
 8001a40:	080054f4 	.word	0x080054f4

08001a44 <NVIC_SetPriority>:

    \param [in]      IRQn  Interrupt number.
    \param [in]  priority  Priority to set.
 */
__STATIC_INLINE void NVIC_SetPriority(IRQn_Type IRQn, uint32_t priority)
{
 8001a44:	b480      	push	{r7}
 8001a46:	b083      	sub	sp, #12
 8001a48:	af00      	add	r7, sp, #0
 8001a4a:	4603      	mov	r3, r0
 8001a4c:	6039      	str	r1, [r7, #0]
 8001a4e:	71fb      	strb	r3, [r7, #7]
  if(IRQn < 0) {
 8001a50:	f997 3007 	ldrsb.w	r3, [r7, #7]
 8001a54:	2b00      	cmp	r3, #0
 8001a56:	da0b      	bge.n	8001a70 <NVIC_SetPriority+0x2c>
    SCB->SHP[((uint32_t)(IRQn) & 0xF)-4] = ((priority << (8 - __NVIC_PRIO_BITS)) & 0xff); } /* set Priority for Cortex-M  System Interrupts */
 8001a58:	490d      	ldr	r1, [pc, #52]	; (8001a90 <NVIC_SetPriority+0x4c>)
 8001a5a:	79fb      	ldrb	r3, [r7, #7]
 8001a5c:	f003 030f 	and.w	r3, r3, #15
 8001a60:	3b04      	subs	r3, #4
 8001a62:	683a      	ldr	r2, [r7, #0]
 8001a64:	b2d2      	uxtb	r2, r2
 8001a66:	0112      	lsls	r2, r2, #4
 8001a68:	b2d2      	uxtb	r2, r2
 8001a6a:	440b      	add	r3, r1
 8001a6c:	761a      	strb	r2, [r3, #24]
  else {
    NVIC->IP[(uint32_t)(IRQn)] = ((priority << (8 - __NVIC_PRIO_BITS)) & 0xff);    }        /* set Priority for device specific Interrupts  */
}
 8001a6e:	e009      	b.n	8001a84 <NVIC_SetPriority+0x40>
    NVIC->IP[(uint32_t)(IRQn)] = ((priority << (8 - __NVIC_PRIO_BITS)) & 0xff);    }        /* set Priority for device specific Interrupts  */
 8001a70:	4908      	ldr	r1, [pc, #32]	; (8001a94 <NVIC_SetPriority+0x50>)
 8001a72:	f997 3007 	ldrsb.w	r3, [r7, #7]
 8001a76:	683a      	ldr	r2, [r7, #0]
 8001a78:	b2d2      	uxtb	r2, r2
 8001a7a:	0112      	lsls	r2, r2, #4
 8001a7c:	b2d2      	uxtb	r2, r2
 8001a7e:	440b      	add	r3, r1
 8001a80:	f883 2300 	strb.w	r2, [r3, #768]	; 0x300
}
 8001a84:	bf00      	nop
 8001a86:	370c      	adds	r7, #12
 8001a88:	46bd      	mov	sp, r7
 8001a8a:	f85d 7b04 	ldr.w	r7, [sp], #4
 8001a8e:	4770      	bx	lr
 8001a90:	e000ed00 	.word	0xe000ed00
 8001a94:	e000e100 	.word	0xe000e100

08001a98 <SysTick_Config>:
    function <b>SysTick_Config</b> is not included. In this case, the file <b><i>device</i>.h</b>
    must contain a vendor-specific implementation of this function.

 */
__STATIC_INLINE uint32_t SysTick_Config(uint32_t ticks)
{
 8001a98:	b580      	push	{r7, lr}
 8001a9a:	b082      	sub	sp, #8
 8001a9c:	af00      	add	r7, sp, #0
 8001a9e:	6078      	str	r0, [r7, #4]
  if ((ticks - 1) > SysTick_LOAD_RELOAD_Msk)  return (1);      /* Reload value impossible */
 8001aa0:	687b      	ldr	r3, [r7, #4]
 8001aa2:	3b01      	subs	r3, #1
 8001aa4:	f1b3 7f80 	cmp.w	r3, #16777216	; 0x1000000
 8001aa8:	d301      	bcc.n	8001aae <SysTick_Config+0x16>
 8001aaa:	2301      	movs	r3, #1
 8001aac:	e00f      	b.n	8001ace <SysTick_Config+0x36>

  SysTick->LOAD  = ticks - 1;                                  /* set reload register */
 8001aae:	4a0a      	ldr	r2, [pc, #40]	; (8001ad8 <SysTick_Config+0x40>)
 8001ab0:	687b      	ldr	r3, [r7, #4]
 8001ab2:	3b01      	subs	r3, #1
 8001ab4:	6053      	str	r3, [r2, #4]
  NVIC_SetPriority (SysTick_IRQn, (1<<__NVIC_PRIO_BITS) - 1);  /* set Priority for Systick Interrupt */
 8001ab6:	210f      	movs	r1, #15
 8001ab8:	f04f 30ff 	mov.w	r0, #4294967295	; 0xffffffff
 8001abc:	f7ff ffc2 	bl	8001a44 <NVIC_SetPriority>
  SysTick->VAL   = 0;                                          /* Load the SysTick Counter Value */
 8001ac0:	4b05      	ldr	r3, [pc, #20]	; (8001ad8 <SysTick_Config+0x40>)
 8001ac2:	2200      	movs	r2, #0
 8001ac4:	609a      	str	r2, [r3, #8]
  SysTick->CTRL  = SysTick_CTRL_CLKSOURCE_Msk |
 8001ac6:	4b04      	ldr	r3, [pc, #16]	; (8001ad8 <SysTick_Config+0x40>)
 8001ac8:	2207      	movs	r2, #7
 8001aca:	601a      	str	r2, [r3, #0]
                   SysTick_CTRL_TICKINT_Msk   |
                   SysTick_CTRL_ENABLE_Msk;                    /* Enable SysTick IRQ and SysTick Timer */
  return (0);                                                  /* Function successful */
 8001acc:	2300      	movs	r3, #0
}
 8001ace:	4618      	mov	r0, r3
 8001ad0:	3708      	adds	r7, #8
 8001ad2:	46bd      	mov	sp, r7
 8001ad4:	bd80      	pop	{r7, pc}
 8001ad6:	bf00      	nop
 8001ad8:	e000e010 	.word	0xe000e010

08001adc <INIT_LCD_2x16>:
  	  	  	  	  	{TLCD_D7 ,GPIOF,GPIO_Pin_7  ,RCC_AHB1Periph_GPIOF,Bit_RESET},};
	* @ej
		- INIT_LCD_2x16(LCD_2X16);
******************************************************************************/
void INIT_LCD_2x16(LCD_2X16_t* LCD_2X16)
{
 8001adc:	b580      	push	{r7, lr}
 8001ade:	b082      	sub	sp, #8
 8001ae0:	af00      	add	r7, sp, #0
 8001ae2:	6078      	str	r0, [r7, #4]
	  //Inicializacin de los pines del LCD:
	  P_LCD_2x16_InitIO(LCD_2X16);
 8001ae4:	6878      	ldr	r0, [r7, #4]
 8001ae6:	f000 f9bf 	bl	8001e68 <P_LCD_2x16_InitIO>
	  // kleine Pause
	  P_LCD_2x16_Delay(TLCD_INIT_PAUSE);
 8001aea:	480f      	ldr	r0, [pc, #60]	; (8001b28 <INIT_LCD_2x16+0x4c>)
 8001aec:	f000 fa4f 	bl	8001f8e <P_LCD_2x16_Delay>
	  // Init Sequenz starten
	  P_LCD_2x16_InitSequenz(LCD_2X16);
 8001af0:	6878      	ldr	r0, [r7, #4]
 8001af2:	f000 fa5c 	bl	8001fae <P_LCD_2x16_InitSequenz>
	  // LCD-Settings einstellen
	  P_LCD_2x16_Cmd(TLCD_CMD_INIT_DISPLAY, LCD_2X16);
 8001af6:	6879      	ldr	r1, [r7, #4]
 8001af8:	2028      	movs	r0, #40	; 0x28
 8001afa:	f000 fab4 	bl	8002066 <P_LCD_2x16_Cmd>
	  P_LCD_2x16_Cmd(TLCD_CMD_ENTRY_MODE, LCD_2X16);
 8001afe:	6879      	ldr	r1, [r7, #4]
 8001b00:	2006      	movs	r0, #6
 8001b02:	f000 fab0 	bl	8002066 <P_LCD_2x16_Cmd>
	  // Display einschalten
	  P_LCD_2x16_Cmd(TLCD_CMD_DISP_M1, LCD_2X16);
 8001b06:	6879      	ldr	r1, [r7, #4]
 8001b08:	200c      	movs	r0, #12
 8001b0a:	f000 faac 	bl	8002066 <P_LCD_2x16_Cmd>
	  // Display lschen
	  P_LCD_2x16_Cmd(TLCD_CMD_CLEAR, LCD_2X16);
 8001b0e:	6879      	ldr	r1, [r7, #4]
 8001b10:	2001      	movs	r0, #1
 8001b12:	f000 faa8 	bl	8002066 <P_LCD_2x16_Cmd>
	  // kleine Pause
	  P_LCD_2x16_Delay(TLCD_PAUSE);
 8001b16:	f24c 3050 	movw	r0, #50000	; 0xc350
 8001b1a:	f000 fa38 	bl	8001f8e <P_LCD_2x16_Delay>
}
 8001b1e:	bf00      	nop
 8001b20:	3708      	adds	r7, #8
 8001b22:	46bd      	mov	sp, r7
 8001b24:	bd80      	pop	{r7, pc}
 8001b26:	bf00      	nop
 8001b28:	000186a0 	.word	0x000186a0

08001b2c <CLEAR_LCD_2x16>:
  	  	  	  	  	{TLCD_D7 ,GPIOF,GPIO_Pin_7  ,RCC_AHB1Periph_GPIOF,Bit_RESET},};
	* @ej
		- UB_LCD_2x16_Clear(LCD_2X16);
******************************************************************************/
void CLEAR_LCD_2x16(LCD_2X16_t* LCD_2X16)
{
 8001b2c:	b580      	push	{r7, lr}
 8001b2e:	b082      	sub	sp, #8
 8001b30:	af00      	add	r7, sp, #0
 8001b32:	6078      	str	r0, [r7, #4]
  // Display lschen
  P_LCD_2x16_Cmd(TLCD_CMD_CLEAR, LCD_2X16);
 8001b34:	6879      	ldr	r1, [r7, #4]
 8001b36:	2001      	movs	r0, #1
 8001b38:	f000 fa95 	bl	8002066 <P_LCD_2x16_Cmd>
  // kleine Pause
  P_LCD_2x16_Delay(TLCD_PAUSE);
 8001b3c:	f24c 3050 	movw	r0, #50000	; 0xc350
 8001b40:	f000 fa25 	bl	8001f8e <P_LCD_2x16_Delay>
}
 8001b44:	bf00      	nop
 8001b46:	3708      	adds	r7, #8
 8001b48:	46bd      	mov	sp, r7
 8001b4a:	bd80      	pop	{r7, pc}

08001b4c <PRINT_LCD_2x16>:

	* @ej
		- PRINT_LCD_2x16(LCD_2X16, 0, 0, STR);
******************************************************************************/
void PRINT_LCD_2x16(LCD_2X16_t* LCD_2X16, uint8_t x, uint8_t y, char *ptr)
{
 8001b4c:	b580      	push	{r7, lr}
 8001b4e:	b084      	sub	sp, #16
 8001b50:	af00      	add	r7, sp, #0
 8001b52:	60f8      	str	r0, [r7, #12]
 8001b54:	607b      	str	r3, [r7, #4]
 8001b56:	460b      	mov	r3, r1
 8001b58:	72fb      	strb	r3, [r7, #11]
 8001b5a:	4613      	mov	r3, r2
 8001b5c:	72bb      	strb	r3, [r7, #10]
  // Cursor setzen
  P_LCD_2x16_Cursor(LCD_2X16,x,y);
 8001b5e:	7aba      	ldrb	r2, [r7, #10]
 8001b60:	7afb      	ldrb	r3, [r7, #11]
 8001b62:	4619      	mov	r1, r3
 8001b64:	68f8      	ldr	r0, [r7, #12]
 8001b66:	f000 fb01 	bl	800216c <P_LCD_2x16_Cursor>
  // kompletten String ausgeben
  while (*ptr != 0) {
 8001b6a:	e008      	b.n	8001b7e <PRINT_LCD_2x16+0x32>
    P_LCD_2x16_Data(*ptr, LCD_2X16);
 8001b6c:	687b      	ldr	r3, [r7, #4]
 8001b6e:	781b      	ldrb	r3, [r3, #0]
 8001b70:	68f9      	ldr	r1, [r7, #12]
 8001b72:	4618      	mov	r0, r3
 8001b74:	f000 fb20 	bl	80021b8 <P_LCD_2x16_Data>
    ptr++;
 8001b78:	687b      	ldr	r3, [r7, #4]
 8001b7a:	3301      	adds	r3, #1
 8001b7c:	607b      	str	r3, [r7, #4]
  while (*ptr != 0) {
 8001b7e:	687b      	ldr	r3, [r7, #4]
 8001b80:	781b      	ldrb	r3, [r3, #0]
 8001b82:	2b00      	cmp	r3, #0
 8001b84:	d1f2      	bne.n	8001b6c <PRINT_LCD_2x16+0x20>
  }
}
 8001b86:	bf00      	nop
 8001b88:	3710      	adds	r7, #16
 8001b8a:	46bd      	mov	sp, r7
 8001b8c:	bd80      	pop	{r7, pc}
	...

08001b90 <INIT_SYSTICK>:

	* @ej
		- INIT_SYSTICK(1/1000); //Interrupcion cada 1 mseg.
******************************************************************************/
void INIT_SYSTICK(float div)
{
 8001b90:	b580      	push	{r7, lr}
 8001b92:	b086      	sub	sp, #24
 8001b94:	af00      	add	r7, sp, #0
 8001b96:	ed87 0a01 	vstr	s0, [r7, #4]
	SysTick_Config(SystemCoreClock * div);
 8001b9a:	4b0c      	ldr	r3, [pc, #48]	; (8001bcc <INIT_SYSTICK+0x3c>)
 8001b9c:	681b      	ldr	r3, [r3, #0]
 8001b9e:	ee07 3a90 	vmov	s15, r3
 8001ba2:	eeb8 7a67 	vcvt.f32.u32	s14, s15
 8001ba6:	edd7 7a01 	vldr	s15, [r7, #4]
 8001baa:	ee67 7a27 	vmul.f32	s15, s14, s15
 8001bae:	eefc 7ae7 	vcvt.u32.f32	s15, s15
 8001bb2:	ee17 0a90 	vmov	r0, s15
 8001bb6:	f7ff ff6f 	bl	8001a98 <SysTick_Config>
	RCC_ClocksTypeDef Clocks_Values;
	RCC_GetClocksFreq(&Clocks_Values);
 8001bba:	f107 0308 	add.w	r3, r7, #8
 8001bbe:	4618      	mov	r0, r3
 8001bc0:	f7ff fa5e 	bl	8001080 <RCC_GetClocksFreq>
}
 8001bc4:	bf00      	nop
 8001bc6:	3718      	adds	r7, #24
 8001bc8:	46bd      	mov	sp, r7
 8001bca:	bd80      	pop	{r7, pc}
 8001bcc:	20000088 	.word	0x20000088

08001bd0 <INIT_TIM1>:

	* @ej
		- INIT_TIM4(GPIOX, GPIO_Pin_X); //Inicializacin del Pin PXXX como TIMER4.
******************************************************************************/
void INIT_TIM1(GPIO_TypeDef* Port, uint16_t Pin)
{
 8001bd0:	b580      	push	{r7, lr}
 8001bd2:	b086      	sub	sp, #24
 8001bd4:	af00      	add	r7, sp, #0
 8001bd6:	6078      	str	r0, [r7, #4]
 8001bd8:	460b      	mov	r3, r1
 8001bda:	807b      	strh	r3, [r7, #2]
	  GPIO_InitTypeDef GPIO_InitStructure;

	  RCC_APB2PeriphClockCmd(RCC_APB2Periph_TIM1, ENABLE);
 8001bdc:	2101      	movs	r1, #1
 8001bde:	2001      	movs	r0, #1
 8001be0:	f7ff fb36 	bl	8001250 <RCC_APB2PeriphClockCmd>
	  //Habilitacion de la senal de reloj para el periferico:
	  uint32_t Clock;
	  Clock = FIND_CLOCK(Port);
 8001be4:	6878      	ldr	r0, [r7, #4]
 8001be6:	f000 f8f3 	bl	8001dd0 <FIND_CLOCK>
 8001bea:	6178      	str	r0, [r7, #20]
	  RCC_AHB2PeriphClockCmd(Clock, ENABLE);
 8001bec:	2101      	movs	r1, #1
 8001bee:	6978      	ldr	r0, [r7, #20]
 8001bf0:	f7ff fb0e 	bl	8001210 <RCC_AHB2PeriphClockCmd>

	  /* GPIOC Configuration: TIM4 CH1 (PD12),CH2 (PD13),CH3 (PD14)CH4 (PD15) */
	  GPIO_InitStructure.GPIO_Pin = Pin;
 8001bf4:	887b      	ldrh	r3, [r7, #2]
 8001bf6:	60bb      	str	r3, [r7, #8]
	  GPIO_InitStructure.GPIO_Mode = GPIO_Mode_AF;
 8001bf8:	2302      	movs	r3, #2
 8001bfa:	733b      	strb	r3, [r7, #12]
	  GPIO_InitStructure.GPIO_Speed = GPIO_Speed_100MHz;
 8001bfc:	2303      	movs	r3, #3
 8001bfe:	737b      	strb	r3, [r7, #13]
	  GPIO_InitStructure.GPIO_OType = GPIO_OType_PP;
 8001c00:	2300      	movs	r3, #0
 8001c02:	73bb      	strb	r3, [r7, #14]
	  GPIO_InitStructure.GPIO_PuPd = GPIO_PuPd_UP ;
 8001c04:	2301      	movs	r3, #1
 8001c06:	73fb      	strb	r3, [r7, #15]
	  GPIO_Init(Port, &GPIO_InitStructure);
 8001c08:	f107 0308 	add.w	r3, r7, #8
 8001c0c:	4619      	mov	r1, r3
 8001c0e:	6878      	ldr	r0, [r7, #4]
 8001c10:	f7ff f95e 	bl	8000ed0 <GPIO_Init>

	  //Definicin de GPIO_PinSourceXX:
	  uint8_t PinSource;
	  PinSource = FIND_PINSOURCE(Pin);
 8001c14:	887b      	ldrh	r3, [r7, #2]
 8001c16:	4618      	mov	r0, r3
 8001c18:	f000 fb51 	bl	80022be <FIND_PINSOURCE>
 8001c1c:	4603      	mov	r3, r0
 8001c1e:	74fb      	strb	r3, [r7, #19]

	  /* Connect TIM4 pins to AF2 */
	  GPIO_PinAFConfig(Port, PinSource, GPIO_AF_TIM1);
 8001c20:	7cfb      	ldrb	r3, [r7, #19]
 8001c22:	b29b      	uxth	r3, r3
 8001c24:	2201      	movs	r2, #1
 8001c26:	4619      	mov	r1, r3
 8001c28:	6878      	ldr	r0, [r7, #4]
 8001c2a:	f7ff f9df 	bl	8000fec <GPIO_PinAFConfig>
}
 8001c2e:	bf00      	nop
 8001c30:	3718      	adds	r7, #24
 8001c32:	46bd      	mov	sp, r7
 8001c34:	bd80      	pop	{r7, pc}
	...

08001c38 <SET_TIM1>:

	* @ej
		- INIT_TIM4(GPIOX, GPIO_Pin_X); //Inicializacin del Pin PXXX como TIMER4.
******************************************************************************/
void SET_TIM1(uint16_t Pin, uint32_t TimeBase, uint32_t Freq, uint32_t DutyCycle)
{
 8001c38:	b580      	push	{r7, lr}
 8001c3a:	b086      	sub	sp, #24
 8001c3c:	af00      	add	r7, sp, #0
 8001c3e:	60b9      	str	r1, [r7, #8]
 8001c40:	607a      	str	r2, [r7, #4]
 8001c42:	603b      	str	r3, [r7, #0]
 8001c44:	4603      	mov	r3, r0
 8001c46:	81fb      	strh	r3, [r7, #14]
	uint32_t DT_Value;
	uint16_t PrescalerValue = 0;
 8001c48:	2300      	movs	r3, #0
 8001c4a:	82fb      	strh	r3, [r7, #22]
	uint16_t TIM_Period = 0;
 8001c4c:	2300      	movs	r3, #0
 8001c4e:	82bb      	strh	r3, [r7, #20]

	//Actualizacin de los valores del TIM4:
	SystemCoreClockUpdate();
 8001c50:	f000 fc20 	bl	8002494 <SystemCoreClockUpdate>
	TIM_CtrlPWMOutputs(TIM1, DISABLE);
 8001c54:	2100      	movs	r1, #0
 8001c56:	4859      	ldr	r0, [pc, #356]	; (8001dbc <SET_TIM1+0x184>)
 8001c58:	f7ff fe2a 	bl	80018b0 <TIM_CtrlPWMOutputs>
	TIM_ARRPreloadConfig(TIM1, DISABLE);
 8001c5c:	2100      	movs	r1, #0
 8001c5e:	4857      	ldr	r0, [pc, #348]	; (8001dbc <SET_TIM1+0x184>)
 8001c60:	f7ff fb82 	bl	8001368 <TIM_ARRPreloadConfig>
	TIM_Cmd(TIM1, DISABLE);
 8001c64:	2100      	movs	r1, #0
 8001c66:	4855      	ldr	r0, [pc, #340]	; (8001dbc <SET_TIM1+0x184>)
 8001c68:	f7ff fb9e 	bl	80013a8 <TIM_Cmd>

	/* Compute the prescaler value */
	PrescalerValue = (uint16_t) ((SystemCoreClock / 2) / TimeBase) - 1;
 8001c6c:	4b54      	ldr	r3, [pc, #336]	; (8001dc0 <SET_TIM1+0x188>)
 8001c6e:	681b      	ldr	r3, [r3, #0]
 8001c70:	085a      	lsrs	r2, r3, #1
 8001c72:	68bb      	ldr	r3, [r7, #8]
 8001c74:	fbb2 f3f3 	udiv	r3, r2, r3
 8001c78:	b29b      	uxth	r3, r3
 8001c7a:	3b01      	subs	r3, #1
 8001c7c:	82fb      	strh	r3, [r7, #22]

	/* Time base configuration */
	TIM_TimeBaseStructure.TIM_Period = TimeBase / Freq - 1;
 8001c7e:	68ba      	ldr	r2, [r7, #8]
 8001c80:	687b      	ldr	r3, [r7, #4]
 8001c82:	fbb2 f3f3 	udiv	r3, r2, r3
 8001c86:	3b01      	subs	r3, #1
 8001c88:	4a4e      	ldr	r2, [pc, #312]	; (8001dc4 <SET_TIM1+0x18c>)
 8001c8a:	6053      	str	r3, [r2, #4]
	TIM_Period = TimeBase / Freq - 1;
 8001c8c:	68ba      	ldr	r2, [r7, #8]
 8001c8e:	687b      	ldr	r3, [r7, #4]
 8001c90:	fbb2 f3f3 	udiv	r3, r2, r3
 8001c94:	b29b      	uxth	r3, r3
 8001c96:	3b01      	subs	r3, #1
 8001c98:	82bb      	strh	r3, [r7, #20]

	TIM_TimeBaseStructure.TIM_Prescaler = PrescalerValue;
 8001c9a:	4a4a      	ldr	r2, [pc, #296]	; (8001dc4 <SET_TIM1+0x18c>)
 8001c9c:	8afb      	ldrh	r3, [r7, #22]
 8001c9e:	8013      	strh	r3, [r2, #0]
	TIM_TimeBaseStructure.TIM_ClockDivision = 0;
 8001ca0:	4b48      	ldr	r3, [pc, #288]	; (8001dc4 <SET_TIM1+0x18c>)
 8001ca2:	2200      	movs	r2, #0
 8001ca4:	811a      	strh	r2, [r3, #8]
	TIM_TimeBaseStructure.TIM_CounterMode = TIM_CounterMode_Up;
 8001ca6:	4b47      	ldr	r3, [pc, #284]	; (8001dc4 <SET_TIM1+0x18c>)
 8001ca8:	2200      	movs	r2, #0
 8001caa:	805a      	strh	r2, [r3, #2]

	TIM_TimeBaseInit(TIM1, &TIM_TimeBaseStructure);
 8001cac:	4945      	ldr	r1, [pc, #276]	; (8001dc4 <SET_TIM1+0x18c>)
 8001cae:	4843      	ldr	r0, [pc, #268]	; (8001dbc <SET_TIM1+0x184>)
 8001cb0:	f7ff faee 	bl	8001290 <TIM_TimeBaseInit>

	/* PWM1 Mode configuration: Channel1*/
	TIM_OCInitStructure.TIM_OCMode = TIM_OCMode_PWM1;
 8001cb4:	4b44      	ldr	r3, [pc, #272]	; (8001dc8 <SET_TIM1+0x190>)
 8001cb6:	2260      	movs	r2, #96	; 0x60
 8001cb8:	801a      	strh	r2, [r3, #0]
	TIM_OCInitStructure.TIM_OCPolarity = TIM_OCPolarity_High;
 8001cba:	4b43      	ldr	r3, [pc, #268]	; (8001dc8 <SET_TIM1+0x190>)
 8001cbc:	2200      	movs	r2, #0
 8001cbe:	819a      	strh	r2, [r3, #12]

	//Configuracin del Duty Cycle para cada pin:
	DT_Value = DutyCycle * (TIM_Period + 1) / 100;
 8001cc0:	8abb      	ldrh	r3, [r7, #20]
 8001cc2:	3301      	adds	r3, #1
 8001cc4:	461a      	mov	r2, r3
 8001cc6:	683b      	ldr	r3, [r7, #0]
 8001cc8:	fb03 f302 	mul.w	r3, r3, r2
 8001ccc:	4a3f      	ldr	r2, [pc, #252]	; (8001dcc <SET_TIM1+0x194>)
 8001cce:	fba2 2303 	umull	r2, r3, r2, r3
 8001cd2:	095b      	lsrs	r3, r3, #5
 8001cd4:	613b      	str	r3, [r7, #16]

	if (Pin == GPIO_Pin_9) {
 8001cd6:	89fb      	ldrh	r3, [r7, #14]
 8001cd8:	f5b3 7f00 	cmp.w	r3, #512	; 0x200
 8001cdc:	d114      	bne.n	8001d08 <SET_TIM1+0xd0>
		/* PWM1 Mode configuration: Channel1 : para TIM4 es PD12 */
		TIM_OCInitStructure.TIM_OCMode = TIM_OCMode_PWM1;
 8001cde:	4b3a      	ldr	r3, [pc, #232]	; (8001dc8 <SET_TIM1+0x190>)
 8001ce0:	2260      	movs	r2, #96	; 0x60
 8001ce2:	801a      	strh	r2, [r3, #0]
		TIM_OCInitStructure.TIM_OutputState = TIM_OutputState_Enable;
 8001ce4:	4b38      	ldr	r3, [pc, #224]	; (8001dc8 <SET_TIM1+0x190>)
 8001ce6:	2201      	movs	r2, #1
 8001ce8:	805a      	strh	r2, [r3, #2]
		TIM_OCInitStructure.TIM_Pulse = DT_Value;
 8001cea:	4a37      	ldr	r2, [pc, #220]	; (8001dc8 <SET_TIM1+0x190>)
 8001cec:	693b      	ldr	r3, [r7, #16]
 8001cee:	6093      	str	r3, [r2, #8]
		TIM_OCInitStructure.TIM_OCPolarity = TIM_OCPolarity_High;
 8001cf0:	4b35      	ldr	r3, [pc, #212]	; (8001dc8 <SET_TIM1+0x190>)
 8001cf2:	2200      	movs	r2, #0
 8001cf4:	819a      	strh	r2, [r3, #12]

		TIM_OC1Init(TIM1, &TIM_OCInitStructure);
 8001cf6:	4934      	ldr	r1, [pc, #208]	; (8001dc8 <SET_TIM1+0x190>)
 8001cf8:	4830      	ldr	r0, [pc, #192]	; (8001dbc <SET_TIM1+0x184>)
 8001cfa:	f7ff fb75 	bl	80013e8 <TIM_OC1Init>

		TIM_OC1PreloadConfig(TIM1, TIM_OCPreload_Enable);
 8001cfe:	2108      	movs	r1, #8
 8001d00:	482e      	ldr	r0, [pc, #184]	; (8001dbc <SET_TIM1+0x184>)
 8001d02:	f7ff fd61 	bl	80017c8 <TIM_OC1PreloadConfig>
 8001d06:	e049      	b.n	8001d9c <SET_TIM1+0x164>
	} else if (Pin == GPIO_Pin_13) {
 8001d08:	89fb      	ldrh	r3, [r7, #14]
 8001d0a:	f5b3 5f00 	cmp.w	r3, #8192	; 0x2000
 8001d0e:	d114      	bne.n	8001d3a <SET_TIM1+0x102>
		/* PWM1 Mode configuration: Channel1 : para TIM4 es PD12 */
		TIM_OCInitStructure.TIM_OCMode = TIM_OCMode_PWM1;
 8001d10:	4b2d      	ldr	r3, [pc, #180]	; (8001dc8 <SET_TIM1+0x190>)
 8001d12:	2260      	movs	r2, #96	; 0x60
 8001d14:	801a      	strh	r2, [r3, #0]
		TIM_OCInitStructure.TIM_OutputState = TIM_OutputState_Enable;
 8001d16:	4b2c      	ldr	r3, [pc, #176]	; (8001dc8 <SET_TIM1+0x190>)
 8001d18:	2201      	movs	r2, #1
 8001d1a:	805a      	strh	r2, [r3, #2]
		TIM_OCInitStructure.TIM_Pulse = DT_Value;
 8001d1c:	4a2a      	ldr	r2, [pc, #168]	; (8001dc8 <SET_TIM1+0x190>)
 8001d1e:	693b      	ldr	r3, [r7, #16]
 8001d20:	6093      	str	r3, [r2, #8]
		TIM_OCInitStructure.TIM_OCPolarity = TIM_OCPolarity_High;
 8001d22:	4b29      	ldr	r3, [pc, #164]	; (8001dc8 <SET_TIM1+0x190>)
 8001d24:	2200      	movs	r2, #0
 8001d26:	819a      	strh	r2, [r3, #12]

		TIM_OC2Init(TIM1, &TIM_OCInitStructure);
 8001d28:	4927      	ldr	r1, [pc, #156]	; (8001dc8 <SET_TIM1+0x190>)
 8001d2a:	4824      	ldr	r0, [pc, #144]	; (8001dbc <SET_TIM1+0x184>)
 8001d2c:	f7ff fbd6 	bl	80014dc <TIM_OC2Init>

		TIM_OC2PreloadConfig(TIM1, TIM_OCPreload_Enable);
 8001d30:	2108      	movs	r1, #8
 8001d32:	4822      	ldr	r0, [pc, #136]	; (8001dbc <SET_TIM1+0x184>)
 8001d34:	f7ff fd64 	bl	8001800 <TIM_OC2PreloadConfig>
 8001d38:	e030      	b.n	8001d9c <SET_TIM1+0x164>
	} else if (Pin == GPIO_Pin_14) {
 8001d3a:	89fb      	ldrh	r3, [r7, #14]
 8001d3c:	f5b3 4f80 	cmp.w	r3, #16384	; 0x4000
 8001d40:	d114      	bne.n	8001d6c <SET_TIM1+0x134>
		/* PWM1 Mode configuration: Channel1 : para TIM4 es PD12 */
		TIM_OCInitStructure.TIM_OCMode = TIM_OCMode_PWM1;
 8001d42:	4b21      	ldr	r3, [pc, #132]	; (8001dc8 <SET_TIM1+0x190>)
 8001d44:	2260      	movs	r2, #96	; 0x60
 8001d46:	801a      	strh	r2, [r3, #0]
		TIM_OCInitStructure.TIM_OutputState = TIM_OutputState_Enable;
 8001d48:	4b1f      	ldr	r3, [pc, #124]	; (8001dc8 <SET_TIM1+0x190>)
 8001d4a:	2201      	movs	r2, #1
 8001d4c:	805a      	strh	r2, [r3, #2]
		TIM_OCInitStructure.TIM_Pulse = DT_Value;
 8001d4e:	4a1e      	ldr	r2, [pc, #120]	; (8001dc8 <SET_TIM1+0x190>)
 8001d50:	693b      	ldr	r3, [r7, #16]
 8001d52:	6093      	str	r3, [r2, #8]
		TIM_OCInitStructure.TIM_OCPolarity = TIM_OCPolarity_High;
 8001d54:	4b1c      	ldr	r3, [pc, #112]	; (8001dc8 <SET_TIM1+0x190>)
 8001d56:	2200      	movs	r2, #0
 8001d58:	819a      	strh	r2, [r3, #12]

		TIM_OC3Init(TIM1, &TIM_OCInitStructure);
 8001d5a:	491b      	ldr	r1, [pc, #108]	; (8001dc8 <SET_TIM1+0x190>)
 8001d5c:	4817      	ldr	r0, [pc, #92]	; (8001dbc <SET_TIM1+0x184>)
 8001d5e:	f7ff fc45 	bl	80015ec <TIM_OC3Init>

		TIM_OC3PreloadConfig(TIM1, TIM_OCPreload_Enable);
 8001d62:	2108      	movs	r1, #8
 8001d64:	4815      	ldr	r0, [pc, #84]	; (8001dbc <SET_TIM1+0x184>)
 8001d66:	f7ff fd69 	bl	800183c <TIM_OC3PreloadConfig>
 8001d6a:	e017      	b.n	8001d9c <SET_TIM1+0x164>
	} else if (Pin == GPIO_Pin_15) {
 8001d6c:	89fb      	ldrh	r3, [r7, #14]
 8001d6e:	f5b3 4f00 	cmp.w	r3, #32768	; 0x8000
 8001d72:	d113      	bne.n	8001d9c <SET_TIM1+0x164>
		/* PWM1 Mode configuration: Channel1 : para TIM4 es PD12 */
		TIM_OCInitStructure.TIM_OCMode = TIM_OCMode_PWM1;
 8001d74:	4b14      	ldr	r3, [pc, #80]	; (8001dc8 <SET_TIM1+0x190>)
 8001d76:	2260      	movs	r2, #96	; 0x60
 8001d78:	801a      	strh	r2, [r3, #0]
		TIM_OCInitStructure.TIM_OutputState = TIM_OutputState_Enable;
 8001d7a:	4b13      	ldr	r3, [pc, #76]	; (8001dc8 <SET_TIM1+0x190>)
 8001d7c:	2201      	movs	r2, #1
 8001d7e:	805a      	strh	r2, [r3, #2]
		TIM_OCInitStructure.TIM_Pulse = DT_Value;
 8001d80:	4a11      	ldr	r2, [pc, #68]	; (8001dc8 <SET_TIM1+0x190>)
 8001d82:	693b      	ldr	r3, [r7, #16]
 8001d84:	6093      	str	r3, [r2, #8]
		TIM_OCInitStructure.TIM_OCPolarity = TIM_OCPolarity_High;
 8001d86:	4b10      	ldr	r3, [pc, #64]	; (8001dc8 <SET_TIM1+0x190>)
 8001d88:	2200      	movs	r2, #0
 8001d8a:	819a      	strh	r2, [r3, #12]

		TIM_OC4Init(TIM1, &TIM_OCInitStructure);
 8001d8c:	490e      	ldr	r1, [pc, #56]	; (8001dc8 <SET_TIM1+0x190>)
 8001d8e:	480b      	ldr	r0, [pc, #44]	; (8001dbc <SET_TIM1+0x184>)
 8001d90:	f7ff fcb2 	bl	80016f8 <TIM_OC4Init>

		TIM_OC4PreloadConfig(TIM1, TIM_OCPreload_Enable);
 8001d94:	2108      	movs	r1, #8
 8001d96:	4809      	ldr	r0, [pc, #36]	; (8001dbc <SET_TIM1+0x184>)
 8001d98:	f7ff fd6c 	bl	8001874 <TIM_OC4PreloadConfig>
	}

	//Cargar valores al TIM4:
	TIM_CtrlPWMOutputs(TIM1, ENABLE);
 8001d9c:	2101      	movs	r1, #1
 8001d9e:	4807      	ldr	r0, [pc, #28]	; (8001dbc <SET_TIM1+0x184>)
 8001da0:	f7ff fd86 	bl	80018b0 <TIM_CtrlPWMOutputs>
	TIM_ARRPreloadConfig(TIM1, ENABLE);
 8001da4:	2101      	movs	r1, #1
 8001da6:	4805      	ldr	r0, [pc, #20]	; (8001dbc <SET_TIM1+0x184>)
 8001da8:	f7ff fade 	bl	8001368 <TIM_ARRPreloadConfig>
    TIM_Cmd(TIM1, ENABLE);
 8001dac:	2101      	movs	r1, #1
 8001dae:	4803      	ldr	r0, [pc, #12]	; (8001dbc <SET_TIM1+0x184>)
 8001db0:	f7ff fafa 	bl	80013a8 <TIM_Cmd>
}
 8001db4:	bf00      	nop
 8001db6:	3718      	adds	r7, #24
 8001db8:	46bd      	mov	sp, r7
 8001dba:	bd80      	pop	{r7, pc}
 8001dbc:	40010000 	.word	0x40010000
 8001dc0:	20000088 	.word	0x20000088
 8001dc4:	2000076c 	.word	0x2000076c
 8001dc8:	20000778 	.word	0x20000778
 8001dcc:	51eb851f 	.word	0x51eb851f

08001dd0 <FIND_CLOCK>:
/*------------------------------------------------------------------------------
 FUNCIONES INTERNAS:
------------------------------------------------------------------------------*/
//General:
uint32_t FIND_CLOCK(GPIO_TypeDef* Port)
{
 8001dd0:	b480      	push	{r7}
 8001dd2:	b085      	sub	sp, #20
 8001dd4:	af00      	add	r7, sp, #0
 8001dd6:	6078      	str	r0, [r7, #4]
	uint32_t Clock;

	if		(Port == GPIOA) Clock = RCC_AHB1Periph_GPIOA;
 8001dd8:	687b      	ldr	r3, [r7, #4]
 8001dda:	4a1c      	ldr	r2, [pc, #112]	; (8001e4c <FIND_CLOCK+0x7c>)
 8001ddc:	4293      	cmp	r3, r2
 8001dde:	d102      	bne.n	8001de6 <FIND_CLOCK+0x16>
 8001de0:	2301      	movs	r3, #1
 8001de2:	60fb      	str	r3, [r7, #12]
 8001de4:	e02b      	b.n	8001e3e <FIND_CLOCK+0x6e>
	else if (Port == GPIOB) Clock = RCC_AHB1Periph_GPIOB;
 8001de6:	687b      	ldr	r3, [r7, #4]
 8001de8:	4a19      	ldr	r2, [pc, #100]	; (8001e50 <FIND_CLOCK+0x80>)
 8001dea:	4293      	cmp	r3, r2
 8001dec:	d102      	bne.n	8001df4 <FIND_CLOCK+0x24>
 8001dee:	2302      	movs	r3, #2
 8001df0:	60fb      	str	r3, [r7, #12]
 8001df2:	e024      	b.n	8001e3e <FIND_CLOCK+0x6e>
	else if (Port == GPIOC) Clock = RCC_AHB1Periph_GPIOC;
 8001df4:	687b      	ldr	r3, [r7, #4]
 8001df6:	4a17      	ldr	r2, [pc, #92]	; (8001e54 <FIND_CLOCK+0x84>)
 8001df8:	4293      	cmp	r3, r2
 8001dfa:	d102      	bne.n	8001e02 <FIND_CLOCK+0x32>
 8001dfc:	2304      	movs	r3, #4
 8001dfe:	60fb      	str	r3, [r7, #12]
 8001e00:	e01d      	b.n	8001e3e <FIND_CLOCK+0x6e>
	else if (Port == GPIOD) Clock = RCC_AHB1Periph_GPIOD;
 8001e02:	687b      	ldr	r3, [r7, #4]
 8001e04:	4a14      	ldr	r2, [pc, #80]	; (8001e58 <FIND_CLOCK+0x88>)
 8001e06:	4293      	cmp	r3, r2
 8001e08:	d102      	bne.n	8001e10 <FIND_CLOCK+0x40>
 8001e0a:	2308      	movs	r3, #8
 8001e0c:	60fb      	str	r3, [r7, #12]
 8001e0e:	e016      	b.n	8001e3e <FIND_CLOCK+0x6e>
	else if (Port == GPIOE) Clock = RCC_AHB1Periph_GPIOE;
 8001e10:	687b      	ldr	r3, [r7, #4]
 8001e12:	4a12      	ldr	r2, [pc, #72]	; (8001e5c <FIND_CLOCK+0x8c>)
 8001e14:	4293      	cmp	r3, r2
 8001e16:	d102      	bne.n	8001e1e <FIND_CLOCK+0x4e>
 8001e18:	2310      	movs	r3, #16
 8001e1a:	60fb      	str	r3, [r7, #12]
 8001e1c:	e00f      	b.n	8001e3e <FIND_CLOCK+0x6e>
	else if (Port == GPIOF) Clock = RCC_AHB1Periph_GPIOF;
 8001e1e:	687b      	ldr	r3, [r7, #4]
 8001e20:	4a0f      	ldr	r2, [pc, #60]	; (8001e60 <FIND_CLOCK+0x90>)
 8001e22:	4293      	cmp	r3, r2
 8001e24:	d102      	bne.n	8001e2c <FIND_CLOCK+0x5c>
 8001e26:	2320      	movs	r3, #32
 8001e28:	60fb      	str	r3, [r7, #12]
 8001e2a:	e008      	b.n	8001e3e <FIND_CLOCK+0x6e>
	else if (Port == GPIOG) Clock = RCC_AHB1Periph_GPIOG;
 8001e2c:	687b      	ldr	r3, [r7, #4]
 8001e2e:	4a0d      	ldr	r2, [pc, #52]	; (8001e64 <FIND_CLOCK+0x94>)
 8001e30:	4293      	cmp	r3, r2
 8001e32:	d102      	bne.n	8001e3a <FIND_CLOCK+0x6a>
 8001e34:	2340      	movs	r3, #64	; 0x40
 8001e36:	60fb      	str	r3, [r7, #12]
 8001e38:	e001      	b.n	8001e3e <FIND_CLOCK+0x6e>
	else 					Clock = NULL;
 8001e3a:	2300      	movs	r3, #0
 8001e3c:	60fb      	str	r3, [r7, #12]

	return Clock;
 8001e3e:	68fb      	ldr	r3, [r7, #12]
}
 8001e40:	4618      	mov	r0, r3
 8001e42:	3714      	adds	r7, #20
 8001e44:	46bd      	mov	sp, r7
 8001e46:	f85d 7b04 	ldr.w	r7, [sp], #4
 8001e4a:	4770      	bx	lr
 8001e4c:	40020000 	.word	0x40020000
 8001e50:	40020400 	.word	0x40020400
 8001e54:	40020800 	.word	0x40020800
 8001e58:	40020c00 	.word	0x40020c00
 8001e5c:	40021000 	.word	0x40021000
 8001e60:	40021400 	.word	0x40021400
 8001e64:	40021800 	.word	0x40021800

08001e68 <P_LCD_2x16_InitIO>:
	return Channel;
}

//LCD:
void P_LCD_2x16_InitIO(LCD_2X16_t* LCD_2X16)
{
 8001e68:	b580      	push	{r7, lr}
 8001e6a:	b086      	sub	sp, #24
 8001e6c:	af00      	add	r7, sp, #0
 8001e6e:	6078      	str	r0, [r7, #4]
	GPIO_InitTypeDef GPIO_InitStructure;
	TLCD_NAME_t lcd_pin;

	for (lcd_pin = 0; lcd_pin < TLCD_ANZ; lcd_pin++)
 8001e70:	2300      	movs	r3, #0
 8001e72:	75fb      	strb	r3, [r7, #23]
 8001e74:	e046      	b.n	8001f04 <P_LCD_2x16_InitIO+0x9c>
	{
		//Habilitacion del Clock para cada PIN:
		RCC_AHB1PeriphClockCmd(LCD_2X16[lcd_pin].TLCD_CLK, ENABLE);
 8001e76:	7dfa      	ldrb	r2, [r7, #23]
 8001e78:	4613      	mov	r3, r2
 8001e7a:	009b      	lsls	r3, r3, #2
 8001e7c:	4413      	add	r3, r2
 8001e7e:	009b      	lsls	r3, r3, #2
 8001e80:	461a      	mov	r2, r3
 8001e82:	687b      	ldr	r3, [r7, #4]
 8001e84:	4413      	add	r3, r2
 8001e86:	68db      	ldr	r3, [r3, #12]
 8001e88:	2101      	movs	r1, #1
 8001e8a:	4618      	mov	r0, r3
 8001e8c:	f7ff f9a0 	bl	80011d0 <RCC_AHB1PeriphClockCmd>

		//Configuracion como salidas digitales:
		GPIO_InitStructure.GPIO_Pin = LCD_2X16[lcd_pin].TLCD_PIN;
 8001e90:	7dfa      	ldrb	r2, [r7, #23]
 8001e92:	4613      	mov	r3, r2
 8001e94:	009b      	lsls	r3, r3, #2
 8001e96:	4413      	add	r3, r2
 8001e98:	009b      	lsls	r3, r3, #2
 8001e9a:	461a      	mov	r2, r3
 8001e9c:	687b      	ldr	r3, [r7, #4]
 8001e9e:	4413      	add	r3, r2
 8001ea0:	891b      	ldrh	r3, [r3, #8]
 8001ea2:	60fb      	str	r3, [r7, #12]
		GPIO_InitStructure.GPIO_Mode = GPIO_Mode_OUT;
 8001ea4:	2301      	movs	r3, #1
 8001ea6:	743b      	strb	r3, [r7, #16]
		GPIO_InitStructure.GPIO_OType = GPIO_OType_PP;
 8001ea8:	2300      	movs	r3, #0
 8001eaa:	74bb      	strb	r3, [r7, #18]
		GPIO_InitStructure.GPIO_PuPd = GPIO_PuPd_UP;
 8001eac:	2301      	movs	r3, #1
 8001eae:	74fb      	strb	r3, [r7, #19]
		GPIO_InitStructure.GPIO_Speed = GPIO_Speed_50MHz;
 8001eb0:	2302      	movs	r3, #2
 8001eb2:	747b      	strb	r3, [r7, #17]
		GPIO_Init(LCD_2X16[lcd_pin].TLCD_PORT, &GPIO_InitStructure);
 8001eb4:	7dfa      	ldrb	r2, [r7, #23]
 8001eb6:	4613      	mov	r3, r2
 8001eb8:	009b      	lsls	r3, r3, #2
 8001eba:	4413      	add	r3, r2
 8001ebc:	009b      	lsls	r3, r3, #2
 8001ebe:	461a      	mov	r2, r3
 8001ec0:	687b      	ldr	r3, [r7, #4]
 8001ec2:	4413      	add	r3, r2
 8001ec4:	685b      	ldr	r3, [r3, #4]
 8001ec6:	f107 020c 	add.w	r2, r7, #12
 8001eca:	4611      	mov	r1, r2
 8001ecc:	4618      	mov	r0, r3
 8001ece:	f7fe ffff 	bl	8000ed0 <GPIO_Init>

		//Default Wert einstellen
		if(LCD_2X16[lcd_pin].TLCD_INIT == Bit_RESET)
 8001ed2:	7dfa      	ldrb	r2, [r7, #23]
 8001ed4:	4613      	mov	r3, r2
 8001ed6:	009b      	lsls	r3, r3, #2
 8001ed8:	4413      	add	r3, r2
 8001eda:	009b      	lsls	r3, r3, #2
 8001edc:	461a      	mov	r2, r3
 8001ede:	687b      	ldr	r3, [r7, #4]
 8001ee0:	4413      	add	r3, r2
 8001ee2:	7c1b      	ldrb	r3, [r3, #16]
 8001ee4:	2b00      	cmp	r3, #0
 8001ee6:	d105      	bne.n	8001ef4 <P_LCD_2x16_InitIO+0x8c>
			P_LCD_2x16_PinLo(lcd_pin, LCD_2X16);
 8001ee8:	7dfb      	ldrb	r3, [r7, #23]
 8001eea:	6879      	ldr	r1, [r7, #4]
 8001eec:	4618      	mov	r0, r3
 8001eee:	f000 f810 	bl	8001f12 <P_LCD_2x16_PinLo>
 8001ef2:	e004      	b.n	8001efe <P_LCD_2x16_InitIO+0x96>
		else
			P_LCD_2x16_PinHi(lcd_pin, LCD_2X16);
 8001ef4:	7dfb      	ldrb	r3, [r7, #23]
 8001ef6:	6879      	ldr	r1, [r7, #4]
 8001ef8:	4618      	mov	r0, r3
 8001efa:	f000 f829 	bl	8001f50 <P_LCD_2x16_PinHi>
	for (lcd_pin = 0; lcd_pin < TLCD_ANZ; lcd_pin++)
 8001efe:	7dfb      	ldrb	r3, [r7, #23]
 8001f00:	3301      	adds	r3, #1
 8001f02:	75fb      	strb	r3, [r7, #23]
 8001f04:	7dfb      	ldrb	r3, [r7, #23]
 8001f06:	2b05      	cmp	r3, #5
 8001f08:	d9b5      	bls.n	8001e76 <P_LCD_2x16_InitIO+0xe>
	}
}
 8001f0a:	bf00      	nop
 8001f0c:	3718      	adds	r7, #24
 8001f0e:	46bd      	mov	sp, r7
 8001f10:	bd80      	pop	{r7, pc}

08001f12 <P_LCD_2x16_PinLo>:

void P_LCD_2x16_PinLo(TLCD_NAME_t lcd_pin, LCD_2X16_t* LCD_2X16)
{
 8001f12:	b480      	push	{r7}
 8001f14:	b083      	sub	sp, #12
 8001f16:	af00      	add	r7, sp, #0
 8001f18:	4603      	mov	r3, r0
 8001f1a:	6039      	str	r1, [r7, #0]
 8001f1c:	71fb      	strb	r3, [r7, #7]
  LCD_2X16[lcd_pin].TLCD_PORT->BSRRH = LCD_2X16[lcd_pin].TLCD_PIN;
 8001f1e:	79fa      	ldrb	r2, [r7, #7]
 8001f20:	4613      	mov	r3, r2
 8001f22:	009b      	lsls	r3, r3, #2
 8001f24:	4413      	add	r3, r2
 8001f26:	009b      	lsls	r3, r3, #2
 8001f28:	461a      	mov	r2, r3
 8001f2a:	683b      	ldr	r3, [r7, #0]
 8001f2c:	4413      	add	r3, r2
 8001f2e:	6859      	ldr	r1, [r3, #4]
 8001f30:	79fa      	ldrb	r2, [r7, #7]
 8001f32:	4613      	mov	r3, r2
 8001f34:	009b      	lsls	r3, r3, #2
 8001f36:	4413      	add	r3, r2
 8001f38:	009b      	lsls	r3, r3, #2
 8001f3a:	461a      	mov	r2, r3
 8001f3c:	683b      	ldr	r3, [r7, #0]
 8001f3e:	4413      	add	r3, r2
 8001f40:	891b      	ldrh	r3, [r3, #8]
 8001f42:	834b      	strh	r3, [r1, #26]
}
 8001f44:	bf00      	nop
 8001f46:	370c      	adds	r7, #12
 8001f48:	46bd      	mov	sp, r7
 8001f4a:	f85d 7b04 	ldr.w	r7, [sp], #4
 8001f4e:	4770      	bx	lr

08001f50 <P_LCD_2x16_PinHi>:

void P_LCD_2x16_PinHi(TLCD_NAME_t lcd_pin, LCD_2X16_t* LCD_2X16)
{
 8001f50:	b480      	push	{r7}
 8001f52:	b083      	sub	sp, #12
 8001f54:	af00      	add	r7, sp, #0
 8001f56:	4603      	mov	r3, r0
 8001f58:	6039      	str	r1, [r7, #0]
 8001f5a:	71fb      	strb	r3, [r7, #7]
  LCD_2X16[lcd_pin].TLCD_PORT->BSRRL = LCD_2X16[lcd_pin].TLCD_PIN;
 8001f5c:	79fa      	ldrb	r2, [r7, #7]
 8001f5e:	4613      	mov	r3, r2
 8001f60:	009b      	lsls	r3, r3, #2
 8001f62:	4413      	add	r3, r2
 8001f64:	009b      	lsls	r3, r3, #2
 8001f66:	461a      	mov	r2, r3
 8001f68:	683b      	ldr	r3, [r7, #0]
 8001f6a:	4413      	add	r3, r2
 8001f6c:	6859      	ldr	r1, [r3, #4]
 8001f6e:	79fa      	ldrb	r2, [r7, #7]
 8001f70:	4613      	mov	r3, r2
 8001f72:	009b      	lsls	r3, r3, #2
 8001f74:	4413      	add	r3, r2
 8001f76:	009b      	lsls	r3, r3, #2
 8001f78:	461a      	mov	r2, r3
 8001f7a:	683b      	ldr	r3, [r7, #0]
 8001f7c:	4413      	add	r3, r2
 8001f7e:	891b      	ldrh	r3, [r3, #8]
 8001f80:	830b      	strh	r3, [r1, #24]
}
 8001f82:	bf00      	nop
 8001f84:	370c      	adds	r7, #12
 8001f86:	46bd      	mov	sp, r7
 8001f88:	f85d 7b04 	ldr.w	r7, [sp], #4
 8001f8c:	4770      	bx	lr

08001f8e <P_LCD_2x16_Delay>:

void P_LCD_2x16_Delay(volatile uint32_t nCount)
{
 8001f8e:	b480      	push	{r7}
 8001f90:	b083      	sub	sp, #12
 8001f92:	af00      	add	r7, sp, #0
 8001f94:	6078      	str	r0, [r7, #4]
  while(nCount--)
 8001f96:	bf00      	nop
 8001f98:	687b      	ldr	r3, [r7, #4]
 8001f9a:	1e5a      	subs	r2, r3, #1
 8001f9c:	607a      	str	r2, [r7, #4]
 8001f9e:	2b00      	cmp	r3, #0
 8001fa0:	d1fa      	bne.n	8001f98 <P_LCD_2x16_Delay+0xa>
  {
  }
}
 8001fa2:	bf00      	nop
 8001fa4:	370c      	adds	r7, #12
 8001fa6:	46bd      	mov	sp, r7
 8001fa8:	f85d 7b04 	ldr.w	r7, [sp], #4
 8001fac:	4770      	bx	lr

08001fae <P_LCD_2x16_InitSequenz>:

void P_LCD_2x16_InitSequenz(LCD_2X16_t* LCD_2X16)
{
 8001fae:	b580      	push	{r7, lr}
 8001fb0:	b082      	sub	sp, #8
 8001fb2:	af00      	add	r7, sp, #0
 8001fb4:	6078      	str	r0, [r7, #4]
  //Inicializacion de la secuencia:
  P_LCD_2x16_PinHi(TLCD_D4, LCD_2X16);
 8001fb6:	6879      	ldr	r1, [r7, #4]
 8001fb8:	2002      	movs	r0, #2
 8001fba:	f7ff ffc9 	bl	8001f50 <P_LCD_2x16_PinHi>
  P_LCD_2x16_PinHi(TLCD_D5, LCD_2X16);
 8001fbe:	6879      	ldr	r1, [r7, #4]
 8001fc0:	2003      	movs	r0, #3
 8001fc2:	f7ff ffc5 	bl	8001f50 <P_LCD_2x16_PinHi>
  P_LCD_2x16_PinLo(TLCD_D6, LCD_2X16);
 8001fc6:	6879      	ldr	r1, [r7, #4]
 8001fc8:	2004      	movs	r0, #4
 8001fca:	f7ff ffa2 	bl	8001f12 <P_LCD_2x16_PinLo>
  P_LCD_2x16_PinLo(TLCD_D7, LCD_2X16);
 8001fce:	6879      	ldr	r1, [r7, #4]
 8001fd0:	2005      	movs	r0, #5
 8001fd2:	f7ff ff9e 	bl	8001f12 <P_LCD_2x16_PinLo>
  // Erster Init Impuls
  P_LCD_2x16_Clk(LCD_2X16);
 8001fd6:	6878      	ldr	r0, [r7, #4]
 8001fd8:	f000 f82d 	bl	8002036 <P_LCD_2x16_Clk>
  P_LCD_2x16_Delay(TLCD_PAUSE);
 8001fdc:	f24c 3050 	movw	r0, #50000	; 0xc350
 8001fe0:	f7ff ffd5 	bl	8001f8e <P_LCD_2x16_Delay>
  // Zweiter Init Impuls
  P_LCD_2x16_Clk(LCD_2X16);
 8001fe4:	6878      	ldr	r0, [r7, #4]
 8001fe6:	f000 f826 	bl	8002036 <P_LCD_2x16_Clk>
  P_LCD_2x16_Delay(TLCD_PAUSE);
 8001fea:	f24c 3050 	movw	r0, #50000	; 0xc350
 8001fee:	f7ff ffce 	bl	8001f8e <P_LCD_2x16_Delay>
  // Dritter Init Impuls
  P_LCD_2x16_Clk(LCD_2X16);
 8001ff2:	6878      	ldr	r0, [r7, #4]
 8001ff4:	f000 f81f 	bl	8002036 <P_LCD_2x16_Clk>
  P_LCD_2x16_Delay(TLCD_PAUSE);
 8001ff8:	f24c 3050 	movw	r0, #50000	; 0xc350
 8001ffc:	f7ff ffc7 	bl	8001f8e <P_LCD_2x16_Delay>
  // LCD-Modus einstellen (4Bit-Mode)
  P_LCD_2x16_PinLo(TLCD_D4, LCD_2X16);
 8002000:	6879      	ldr	r1, [r7, #4]
 8002002:	2002      	movs	r0, #2
 8002004:	f7ff ff85 	bl	8001f12 <P_LCD_2x16_PinLo>
  P_LCD_2x16_PinHi(TLCD_D5, LCD_2X16);
 8002008:	6879      	ldr	r1, [r7, #4]
 800200a:	2003      	movs	r0, #3
 800200c:	f7ff ffa0 	bl	8001f50 <P_LCD_2x16_PinHi>
  P_LCD_2x16_PinLo(TLCD_D6, LCD_2X16);
 8002010:	6879      	ldr	r1, [r7, #4]
 8002012:	2004      	movs	r0, #4
 8002014:	f7ff ff7d 	bl	8001f12 <P_LCD_2x16_PinLo>
  P_LCD_2x16_PinLo(TLCD_D7, LCD_2X16);
 8002018:	6879      	ldr	r1, [r7, #4]
 800201a:	2005      	movs	r0, #5
 800201c:	f7ff ff79 	bl	8001f12 <P_LCD_2x16_PinLo>
  P_LCD_2x16_Clk(LCD_2X16);
 8002020:	6878      	ldr	r0, [r7, #4]
 8002022:	f000 f808 	bl	8002036 <P_LCD_2x16_Clk>
  P_LCD_2x16_Delay(TLCD_PAUSE);
 8002026:	f24c 3050 	movw	r0, #50000	; 0xc350
 800202a:	f7ff ffb0 	bl	8001f8e <P_LCD_2x16_Delay>
}
 800202e:	bf00      	nop
 8002030:	3708      	adds	r7, #8
 8002032:	46bd      	mov	sp, r7
 8002034:	bd80      	pop	{r7, pc}

08002036 <P_LCD_2x16_Clk>:

void P_LCD_2x16_Clk(LCD_2X16_t* LCD_2X16)
{
 8002036:	b580      	push	{r7, lr}
 8002038:	b082      	sub	sp, #8
 800203a:	af00      	add	r7, sp, #0
 800203c:	6078      	str	r0, [r7, #4]
  // Pin-E auf Hi
  P_LCD_2x16_PinHi(TLCD_E, LCD_2X16);
 800203e:	6879      	ldr	r1, [r7, #4]
 8002040:	2001      	movs	r0, #1
 8002042:	f7ff ff85 	bl	8001f50 <P_LCD_2x16_PinHi>
  // kleine Pause
  P_LCD_2x16_Delay(TLCD_CLK_PAUSE);
 8002046:	f44f 707a 	mov.w	r0, #1000	; 0x3e8
 800204a:	f7ff ffa0 	bl	8001f8e <P_LCD_2x16_Delay>
  // Pin-E auf Lo
  P_LCD_2x16_PinLo(TLCD_E, LCD_2X16);
 800204e:	6879      	ldr	r1, [r7, #4]
 8002050:	2001      	movs	r0, #1
 8002052:	f7ff ff5e 	bl	8001f12 <P_LCD_2x16_PinLo>
  // kleine Pause
  P_LCD_2x16_Delay(TLCD_CLK_PAUSE);
 8002056:	f44f 707a 	mov.w	r0, #1000	; 0x3e8
 800205a:	f7ff ff98 	bl	8001f8e <P_LCD_2x16_Delay>
}
 800205e:	bf00      	nop
 8002060:	3708      	adds	r7, #8
 8002062:	46bd      	mov	sp, r7
 8002064:	bd80      	pop	{r7, pc}

08002066 <P_LCD_2x16_Cmd>:

void P_LCD_2x16_Cmd(uint8_t wert, LCD_2X16_t* LCD_2X16)
{
 8002066:	b580      	push	{r7, lr}
 8002068:	b082      	sub	sp, #8
 800206a:	af00      	add	r7, sp, #0
 800206c:	4603      	mov	r3, r0
 800206e:	6039      	str	r1, [r7, #0]
 8002070:	71fb      	strb	r3, [r7, #7]
  // RS=Lo (Command)
  P_LCD_2x16_PinLo(TLCD_RS, LCD_2X16);
 8002072:	6839      	ldr	r1, [r7, #0]
 8002074:	2000      	movs	r0, #0
 8002076:	f7ff ff4c 	bl	8001f12 <P_LCD_2x16_PinLo>
  // Hi-Nibble ausgeben
  if((wert&0x80)!=0) P_LCD_2x16_PinHi(TLCD_D7, LCD_2X16); else P_LCD_2x16_PinLo(TLCD_D7, LCD_2X16);
 800207a:	f997 3007 	ldrsb.w	r3, [r7, #7]
 800207e:	2b00      	cmp	r3, #0
 8002080:	da04      	bge.n	800208c <P_LCD_2x16_Cmd+0x26>
 8002082:	6839      	ldr	r1, [r7, #0]
 8002084:	2005      	movs	r0, #5
 8002086:	f7ff ff63 	bl	8001f50 <P_LCD_2x16_PinHi>
 800208a:	e003      	b.n	8002094 <P_LCD_2x16_Cmd+0x2e>
 800208c:	6839      	ldr	r1, [r7, #0]
 800208e:	2005      	movs	r0, #5
 8002090:	f7ff ff3f 	bl	8001f12 <P_LCD_2x16_PinLo>
  if((wert&0x40)!=0) P_LCD_2x16_PinHi(TLCD_D6, LCD_2X16); else P_LCD_2x16_PinLo(TLCD_D6, LCD_2X16);
 8002094:	79fb      	ldrb	r3, [r7, #7]
 8002096:	f003 0340 	and.w	r3, r3, #64	; 0x40
 800209a:	2b00      	cmp	r3, #0
 800209c:	d004      	beq.n	80020a8 <P_LCD_2x16_Cmd+0x42>
 800209e:	6839      	ldr	r1, [r7, #0]
 80020a0:	2004      	movs	r0, #4
 80020a2:	f7ff ff55 	bl	8001f50 <P_LCD_2x16_PinHi>
 80020a6:	e003      	b.n	80020b0 <P_LCD_2x16_Cmd+0x4a>
 80020a8:	6839      	ldr	r1, [r7, #0]
 80020aa:	2004      	movs	r0, #4
 80020ac:	f7ff ff31 	bl	8001f12 <P_LCD_2x16_PinLo>
  if((wert&0x20)!=0) P_LCD_2x16_PinHi(TLCD_D5, LCD_2X16); else P_LCD_2x16_PinLo(TLCD_D5, LCD_2X16);
 80020b0:	79fb      	ldrb	r3, [r7, #7]
 80020b2:	f003 0320 	and.w	r3, r3, #32
 80020b6:	2b00      	cmp	r3, #0
 80020b8:	d004      	beq.n	80020c4 <P_LCD_2x16_Cmd+0x5e>
 80020ba:	6839      	ldr	r1, [r7, #0]
 80020bc:	2003      	movs	r0, #3
 80020be:	f7ff ff47 	bl	8001f50 <P_LCD_2x16_PinHi>
 80020c2:	e003      	b.n	80020cc <P_LCD_2x16_Cmd+0x66>
 80020c4:	6839      	ldr	r1, [r7, #0]
 80020c6:	2003      	movs	r0, #3
 80020c8:	f7ff ff23 	bl	8001f12 <P_LCD_2x16_PinLo>
  if((wert&0x10)!=0) P_LCD_2x16_PinHi(TLCD_D4, LCD_2X16); else P_LCD_2x16_PinLo(TLCD_D4, LCD_2X16);
 80020cc:	79fb      	ldrb	r3, [r7, #7]
 80020ce:	f003 0310 	and.w	r3, r3, #16
 80020d2:	2b00      	cmp	r3, #0
 80020d4:	d004      	beq.n	80020e0 <P_LCD_2x16_Cmd+0x7a>
 80020d6:	6839      	ldr	r1, [r7, #0]
 80020d8:	2002      	movs	r0, #2
 80020da:	f7ff ff39 	bl	8001f50 <P_LCD_2x16_PinHi>
 80020de:	e003      	b.n	80020e8 <P_LCD_2x16_Cmd+0x82>
 80020e0:	6839      	ldr	r1, [r7, #0]
 80020e2:	2002      	movs	r0, #2
 80020e4:	f7ff ff15 	bl	8001f12 <P_LCD_2x16_PinLo>
  P_LCD_2x16_Clk(LCD_2X16);
 80020e8:	6838      	ldr	r0, [r7, #0]
 80020ea:	f7ff ffa4 	bl	8002036 <P_LCD_2x16_Clk>
  // Lo-Nibble ausgeben
  if((wert&0x08)!=0) P_LCD_2x16_PinHi(TLCD_D7, LCD_2X16); else P_LCD_2x16_PinLo(TLCD_D7, LCD_2X16);
 80020ee:	79fb      	ldrb	r3, [r7, #7]
 80020f0:	f003 0308 	and.w	r3, r3, #8
 80020f4:	2b00      	cmp	r3, #0
 80020f6:	d004      	beq.n	8002102 <P_LCD_2x16_Cmd+0x9c>
 80020f8:	6839      	ldr	r1, [r7, #0]
 80020fa:	2005      	movs	r0, #5
 80020fc:	f7ff ff28 	bl	8001f50 <P_LCD_2x16_PinHi>
 8002100:	e003      	b.n	800210a <P_LCD_2x16_Cmd+0xa4>
 8002102:	6839      	ldr	r1, [r7, #0]
 8002104:	2005      	movs	r0, #5
 8002106:	f7ff ff04 	bl	8001f12 <P_LCD_2x16_PinLo>
  if((wert&0x04)!=0) P_LCD_2x16_PinHi(TLCD_D6, LCD_2X16); else P_LCD_2x16_PinLo(TLCD_D6, LCD_2X16);
 800210a:	79fb      	ldrb	r3, [r7, #7]
 800210c:	f003 0304 	and.w	r3, r3, #4
 8002110:	2b00      	cmp	r3, #0
 8002112:	d004      	beq.n	800211e <P_LCD_2x16_Cmd+0xb8>
 8002114:	6839      	ldr	r1, [r7, #0]
 8002116:	2004      	movs	r0, #4
 8002118:	f7ff ff1a 	bl	8001f50 <P_LCD_2x16_PinHi>
 800211c:	e003      	b.n	8002126 <P_LCD_2x16_Cmd+0xc0>
 800211e:	6839      	ldr	r1, [r7, #0]
 8002120:	2004      	movs	r0, #4
 8002122:	f7ff fef6 	bl	8001f12 <P_LCD_2x16_PinLo>
  if((wert&0x02)!=0) P_LCD_2x16_PinHi(TLCD_D5, LCD_2X16); else P_LCD_2x16_PinLo(TLCD_D5, LCD_2X16);
 8002126:	79fb      	ldrb	r3, [r7, #7]
 8002128:	f003 0302 	and.w	r3, r3, #2
 800212c:	2b00      	cmp	r3, #0
 800212e:	d004      	beq.n	800213a <P_LCD_2x16_Cmd+0xd4>
 8002130:	6839      	ldr	r1, [r7, #0]
 8002132:	2003      	movs	r0, #3
 8002134:	f7ff ff0c 	bl	8001f50 <P_LCD_2x16_PinHi>
 8002138:	e003      	b.n	8002142 <P_LCD_2x16_Cmd+0xdc>
 800213a:	6839      	ldr	r1, [r7, #0]
 800213c:	2003      	movs	r0, #3
 800213e:	f7ff fee8 	bl	8001f12 <P_LCD_2x16_PinLo>
  if((wert&0x01)!=0) P_LCD_2x16_PinHi(TLCD_D4, LCD_2X16); else P_LCD_2x16_PinLo(TLCD_D4, LCD_2X16);
 8002142:	79fb      	ldrb	r3, [r7, #7]
 8002144:	f003 0301 	and.w	r3, r3, #1
 8002148:	2b00      	cmp	r3, #0
 800214a:	d004      	beq.n	8002156 <P_LCD_2x16_Cmd+0xf0>
 800214c:	6839      	ldr	r1, [r7, #0]
 800214e:	2002      	movs	r0, #2
 8002150:	f7ff fefe 	bl	8001f50 <P_LCD_2x16_PinHi>
 8002154:	e003      	b.n	800215e <P_LCD_2x16_Cmd+0xf8>
 8002156:	6839      	ldr	r1, [r7, #0]
 8002158:	2002      	movs	r0, #2
 800215a:	f7ff feda 	bl	8001f12 <P_LCD_2x16_PinLo>
  P_LCD_2x16_Clk(LCD_2X16);
 800215e:	6838      	ldr	r0, [r7, #0]
 8002160:	f7ff ff69 	bl	8002036 <P_LCD_2x16_Clk>
}
 8002164:	bf00      	nop
 8002166:	3708      	adds	r7, #8
 8002168:	46bd      	mov	sp, r7
 800216a:	bd80      	pop	{r7, pc}

0800216c <P_LCD_2x16_Cursor>:

void P_LCD_2x16_Cursor(LCD_2X16_t* LCD_2X16, uint8_t x, uint8_t y)
{
 800216c:	b580      	push	{r7, lr}
 800216e:	b084      	sub	sp, #16
 8002170:	af00      	add	r7, sp, #0
 8002172:	6078      	str	r0, [r7, #4]
 8002174:	460b      	mov	r3, r1
 8002176:	70fb      	strb	r3, [r7, #3]
 8002178:	4613      	mov	r3, r2
 800217a:	70bb      	strb	r3, [r7, #2]
  uint8_t wert;

  if(x>=TLCD_MAXX) x=0;
 800217c:	78fb      	ldrb	r3, [r7, #3]
 800217e:	2b0f      	cmp	r3, #15
 8002180:	d901      	bls.n	8002186 <P_LCD_2x16_Cursor+0x1a>
 8002182:	2300      	movs	r3, #0
 8002184:	70fb      	strb	r3, [r7, #3]
  if(y>=TLCD_MAXY) y=0;
 8002186:	78bb      	ldrb	r3, [r7, #2]
 8002188:	2b01      	cmp	r3, #1
 800218a:	d901      	bls.n	8002190 <P_LCD_2x16_Cursor+0x24>
 800218c:	2300      	movs	r3, #0
 800218e:	70bb      	strb	r3, [r7, #2]

  wert=(y<<6);
 8002190:	78bb      	ldrb	r3, [r7, #2]
 8002192:	019b      	lsls	r3, r3, #6
 8002194:	73fb      	strb	r3, [r7, #15]
  wert|=x;
 8002196:	7bfa      	ldrb	r2, [r7, #15]
 8002198:	78fb      	ldrb	r3, [r7, #3]
 800219a:	4313      	orrs	r3, r2
 800219c:	73fb      	strb	r3, [r7, #15]
  wert|=0x80;
 800219e:	7bfb      	ldrb	r3, [r7, #15]
 80021a0:	f063 037f 	orn	r3, r3, #127	; 0x7f
 80021a4:	73fb      	strb	r3, [r7, #15]
  P_LCD_2x16_Cmd(wert,LCD_2X16);
 80021a6:	7bfb      	ldrb	r3, [r7, #15]
 80021a8:	6879      	ldr	r1, [r7, #4]
 80021aa:	4618      	mov	r0, r3
 80021ac:	f7ff ff5b 	bl	8002066 <P_LCD_2x16_Cmd>
}
 80021b0:	bf00      	nop
 80021b2:	3710      	adds	r7, #16
 80021b4:	46bd      	mov	sp, r7
 80021b6:	bd80      	pop	{r7, pc}

080021b8 <P_LCD_2x16_Data>:

void P_LCD_2x16_Data(uint8_t wert, LCD_2X16_t* LCD_2X16)
{
 80021b8:	b580      	push	{r7, lr}
 80021ba:	b082      	sub	sp, #8
 80021bc:	af00      	add	r7, sp, #0
 80021be:	4603      	mov	r3, r0
 80021c0:	6039      	str	r1, [r7, #0]
 80021c2:	71fb      	strb	r3, [r7, #7]
  // RS=Hi (Data)
  P_LCD_2x16_PinHi(TLCD_RS, LCD_2X16);
 80021c4:	6839      	ldr	r1, [r7, #0]
 80021c6:	2000      	movs	r0, #0
 80021c8:	f7ff fec2 	bl	8001f50 <P_LCD_2x16_PinHi>
  // Hi-Nibble ausgeben
  if((wert&0x80)!=0) P_LCD_2x16_PinHi(TLCD_D7, LCD_2X16); else P_LCD_2x16_PinLo(TLCD_D7, LCD_2X16);
 80021cc:	f997 3007 	ldrsb.w	r3, [r7, #7]
 80021d0:	2b00      	cmp	r3, #0
 80021d2:	da04      	bge.n	80021de <P_LCD_2x16_Data+0x26>
 80021d4:	6839      	ldr	r1, [r7, #0]
 80021d6:	2005      	movs	r0, #5
 80021d8:	f7ff feba 	bl	8001f50 <P_LCD_2x16_PinHi>
 80021dc:	e003      	b.n	80021e6 <P_LCD_2x16_Data+0x2e>
 80021de:	6839      	ldr	r1, [r7, #0]
 80021e0:	2005      	movs	r0, #5
 80021e2:	f7ff fe96 	bl	8001f12 <P_LCD_2x16_PinLo>
  if((wert&0x40)!=0) P_LCD_2x16_PinHi(TLCD_D6, LCD_2X16); else P_LCD_2x16_PinLo(TLCD_D6, LCD_2X16);
 80021e6:	79fb      	ldrb	r3, [r7, #7]
 80021e8:	f003 0340 	and.w	r3, r3, #64	; 0x40
 80021ec:	2b00      	cmp	r3, #0
 80021ee:	d004      	beq.n	80021fa <P_LCD_2x16_Data+0x42>
 80021f0:	6839      	ldr	r1, [r7, #0]
 80021f2:	2004      	movs	r0, #4
 80021f4:	f7ff feac 	bl	8001f50 <P_LCD_2x16_PinHi>
 80021f8:	e003      	b.n	8002202 <P_LCD_2x16_Data+0x4a>
 80021fa:	6839      	ldr	r1, [r7, #0]
 80021fc:	2004      	movs	r0, #4
 80021fe:	f7ff fe88 	bl	8001f12 <P_LCD_2x16_PinLo>
  if((wert&0x20)!=0) P_LCD_2x16_PinHi(TLCD_D5, LCD_2X16); else P_LCD_2x16_PinLo(TLCD_D5, LCD_2X16);
 8002202:	79fb      	ldrb	r3, [r7, #7]
 8002204:	f003 0320 	and.w	r3, r3, #32
 8002208:	2b00      	cmp	r3, #0
 800220a:	d004      	beq.n	8002216 <P_LCD_2x16_Data+0x5e>
 800220c:	6839      	ldr	r1, [r7, #0]
 800220e:	2003      	movs	r0, #3
 8002210:	f7ff fe9e 	bl	8001f50 <P_LCD_2x16_PinHi>
 8002214:	e003      	b.n	800221e <P_LCD_2x16_Data+0x66>
 8002216:	6839      	ldr	r1, [r7, #0]
 8002218:	2003      	movs	r0, #3
 800221a:	f7ff fe7a 	bl	8001f12 <P_LCD_2x16_PinLo>
  if((wert&0x10)!=0) P_LCD_2x16_PinHi(TLCD_D4, LCD_2X16); else P_LCD_2x16_PinLo(TLCD_D4, LCD_2X16);
 800221e:	79fb      	ldrb	r3, [r7, #7]
 8002220:	f003 0310 	and.w	r3, r3, #16
 8002224:	2b00      	cmp	r3, #0
 8002226:	d004      	beq.n	8002232 <P_LCD_2x16_Data+0x7a>
 8002228:	6839      	ldr	r1, [r7, #0]
 800222a:	2002      	movs	r0, #2
 800222c:	f7ff fe90 	bl	8001f50 <P_LCD_2x16_PinHi>
 8002230:	e003      	b.n	800223a <P_LCD_2x16_Data+0x82>
 8002232:	6839      	ldr	r1, [r7, #0]
 8002234:	2002      	movs	r0, #2
 8002236:	f7ff fe6c 	bl	8001f12 <P_LCD_2x16_PinLo>
  P_LCD_2x16_Clk(LCD_2X16);
 800223a:	6838      	ldr	r0, [r7, #0]
 800223c:	f7ff fefb 	bl	8002036 <P_LCD_2x16_Clk>
  // Lo-Nibble ausgeben
  if((wert&0x08)!=0) P_LCD_2x16_PinHi(TLCD_D7, LCD_2X16); else P_LCD_2x16_PinLo(TLCD_D7, LCD_2X16);
 8002240:	79fb      	ldrb	r3, [r7, #7]
 8002242:	f003 0308 	and.w	r3, r3, #8
 8002246:	2b00      	cmp	r3, #0
 8002248:	d004      	beq.n	8002254 <P_LCD_2x16_Data+0x9c>
 800224a:	6839      	ldr	r1, [r7, #0]
 800224c:	2005      	movs	r0, #5
 800224e:	f7ff fe7f 	bl	8001f50 <P_LCD_2x16_PinHi>
 8002252:	e003      	b.n	800225c <P_LCD_2x16_Data+0xa4>
 8002254:	6839      	ldr	r1, [r7, #0]
 8002256:	2005      	movs	r0, #5
 8002258:	f7ff fe5b 	bl	8001f12 <P_LCD_2x16_PinLo>
  if((wert&0x04)!=0) P_LCD_2x16_PinHi(TLCD_D6, LCD_2X16); else P_LCD_2x16_PinLo(TLCD_D6, LCD_2X16);
 800225c:	79fb      	ldrb	r3, [r7, #7]
 800225e:	f003 0304 	and.w	r3, r3, #4
 8002262:	2b00      	cmp	r3, #0
 8002264:	d004      	beq.n	8002270 <P_LCD_2x16_Data+0xb8>
 8002266:	6839      	ldr	r1, [r7, #0]
 8002268:	2004      	movs	r0, #4
 800226a:	f7ff fe71 	bl	8001f50 <P_LCD_2x16_PinHi>
 800226e:	e003      	b.n	8002278 <P_LCD_2x16_Data+0xc0>
 8002270:	6839      	ldr	r1, [r7, #0]
 8002272:	2004      	movs	r0, #4
 8002274:	f7ff fe4d 	bl	8001f12 <P_LCD_2x16_PinLo>
  if((wert&0x02)!=0) P_LCD_2x16_PinHi(TLCD_D5, LCD_2X16); else P_LCD_2x16_PinLo(TLCD_D5, LCD_2X16);
 8002278:	79fb      	ldrb	r3, [r7, #7]
 800227a:	f003 0302 	and.w	r3, r3, #2
 800227e:	2b00      	cmp	r3, #0
 8002280:	d004      	beq.n	800228c <P_LCD_2x16_Data+0xd4>
 8002282:	6839      	ldr	r1, [r7, #0]
 8002284:	2003      	movs	r0, #3
 8002286:	f7ff fe63 	bl	8001f50 <P_LCD_2x16_PinHi>
 800228a:	e003      	b.n	8002294 <P_LCD_2x16_Data+0xdc>
 800228c:	6839      	ldr	r1, [r7, #0]
 800228e:	2003      	movs	r0, #3
 8002290:	f7ff fe3f 	bl	8001f12 <P_LCD_2x16_PinLo>
  if((wert&0x01)!=0) P_LCD_2x16_PinHi(TLCD_D4, LCD_2X16); else P_LCD_2x16_PinLo(TLCD_D4, LCD_2X16);
 8002294:	79fb      	ldrb	r3, [r7, #7]
 8002296:	f003 0301 	and.w	r3, r3, #1
 800229a:	2b00      	cmp	r3, #0
 800229c:	d004      	beq.n	80022a8 <P_LCD_2x16_Data+0xf0>
 800229e:	6839      	ldr	r1, [r7, #0]
 80022a0:	2002      	movs	r0, #2
 80022a2:	f7ff fe55 	bl	8001f50 <P_LCD_2x16_PinHi>
 80022a6:	e003      	b.n	80022b0 <P_LCD_2x16_Data+0xf8>
 80022a8:	6839      	ldr	r1, [r7, #0]
 80022aa:	2002      	movs	r0, #2
 80022ac:	f7ff fe31 	bl	8001f12 <P_LCD_2x16_PinLo>
  P_LCD_2x16_Clk(LCD_2X16);
 80022b0:	6838      	ldr	r0, [r7, #0]
 80022b2:	f7ff fec0 	bl	8002036 <P_LCD_2x16_Clk>
}
 80022b6:	bf00      	nop
 80022b8:	3708      	adds	r7, #8
 80022ba:	46bd      	mov	sp, r7
 80022bc:	bd80      	pop	{r7, pc}

080022be <FIND_PINSOURCE>:

//Configuracin del TIM4:
uint8_t FIND_PINSOURCE(uint32_t Pin)
{
 80022be:	b480      	push	{r7}
 80022c0:	b083      	sub	sp, #12
 80022c2:	af00      	add	r7, sp, #0
 80022c4:	6078      	str	r0, [r7, #4]
	if     (Pin == GPIO_Pin_0)  return GPIO_PinSource0;
 80022c6:	687b      	ldr	r3, [r7, #4]
 80022c8:	2b01      	cmp	r3, #1
 80022ca:	d101      	bne.n	80022d0 <FIND_PINSOURCE+0x12>
 80022cc:	2300      	movs	r3, #0
 80022ce:	e052      	b.n	8002376 <FIND_PINSOURCE+0xb8>
	else if(Pin == GPIO_Pin_1)  return GPIO_PinSource1;
 80022d0:	687b      	ldr	r3, [r7, #4]
 80022d2:	2b02      	cmp	r3, #2
 80022d4:	d101      	bne.n	80022da <FIND_PINSOURCE+0x1c>
 80022d6:	2301      	movs	r3, #1
 80022d8:	e04d      	b.n	8002376 <FIND_PINSOURCE+0xb8>
	else if(Pin == GPIO_Pin_2)  return GPIO_PinSource2;
 80022da:	687b      	ldr	r3, [r7, #4]
 80022dc:	2b04      	cmp	r3, #4
 80022de:	d101      	bne.n	80022e4 <FIND_PINSOURCE+0x26>
 80022e0:	2302      	movs	r3, #2
 80022e2:	e048      	b.n	8002376 <FIND_PINSOURCE+0xb8>
	else if(Pin == GPIO_Pin_3)  return GPIO_PinSource3;
 80022e4:	687b      	ldr	r3, [r7, #4]
 80022e6:	2b08      	cmp	r3, #8
 80022e8:	d101      	bne.n	80022ee <FIND_PINSOURCE+0x30>
 80022ea:	2303      	movs	r3, #3
 80022ec:	e043      	b.n	8002376 <FIND_PINSOURCE+0xb8>
	else if(Pin == GPIO_Pin_4)  return GPIO_PinSource4;
 80022ee:	687b      	ldr	r3, [r7, #4]
 80022f0:	2b10      	cmp	r3, #16
 80022f2:	d101      	bne.n	80022f8 <FIND_PINSOURCE+0x3a>
 80022f4:	2304      	movs	r3, #4
 80022f6:	e03e      	b.n	8002376 <FIND_PINSOURCE+0xb8>
	else if(Pin == GPIO_Pin_5)  return GPIO_PinSource5;
 80022f8:	687b      	ldr	r3, [r7, #4]
 80022fa:	2b20      	cmp	r3, #32
 80022fc:	d101      	bne.n	8002302 <FIND_PINSOURCE+0x44>
 80022fe:	2305      	movs	r3, #5
 8002300:	e039      	b.n	8002376 <FIND_PINSOURCE+0xb8>
	else if(Pin == GPIO_Pin_6)  return GPIO_PinSource6;
 8002302:	687b      	ldr	r3, [r7, #4]
 8002304:	2b40      	cmp	r3, #64	; 0x40
 8002306:	d101      	bne.n	800230c <FIND_PINSOURCE+0x4e>
 8002308:	2306      	movs	r3, #6
 800230a:	e034      	b.n	8002376 <FIND_PINSOURCE+0xb8>
	else if(Pin == GPIO_Pin_7)  return GPIO_PinSource7;
 800230c:	687b      	ldr	r3, [r7, #4]
 800230e:	2b80      	cmp	r3, #128	; 0x80
 8002310:	d101      	bne.n	8002316 <FIND_PINSOURCE+0x58>
 8002312:	2307      	movs	r3, #7
 8002314:	e02f      	b.n	8002376 <FIND_PINSOURCE+0xb8>
	else if(Pin == GPIO_Pin_8)  return GPIO_PinSource8;
 8002316:	687b      	ldr	r3, [r7, #4]
 8002318:	f5b3 7f80 	cmp.w	r3, #256	; 0x100
 800231c:	d101      	bne.n	8002322 <FIND_PINSOURCE+0x64>
 800231e:	2308      	movs	r3, #8
 8002320:	e029      	b.n	8002376 <FIND_PINSOURCE+0xb8>
	else if(Pin == GPIO_Pin_9)  return GPIO_PinSource9;
 8002322:	687b      	ldr	r3, [r7, #4]
 8002324:	f5b3 7f00 	cmp.w	r3, #512	; 0x200
 8002328:	d101      	bne.n	800232e <FIND_PINSOURCE+0x70>
 800232a:	2309      	movs	r3, #9
 800232c:	e023      	b.n	8002376 <FIND_PINSOURCE+0xb8>
	else if(Pin == GPIO_Pin_10) return GPIO_PinSource10;
 800232e:	687b      	ldr	r3, [r7, #4]
 8002330:	f5b3 6f80 	cmp.w	r3, #1024	; 0x400
 8002334:	d101      	bne.n	800233a <FIND_PINSOURCE+0x7c>
 8002336:	230a      	movs	r3, #10
 8002338:	e01d      	b.n	8002376 <FIND_PINSOURCE+0xb8>
	else if(Pin == GPIO_Pin_11) return GPIO_PinSource11;
 800233a:	687b      	ldr	r3, [r7, #4]
 800233c:	f5b3 6f00 	cmp.w	r3, #2048	; 0x800
 8002340:	d101      	bne.n	8002346 <FIND_PINSOURCE+0x88>
 8002342:	230b      	movs	r3, #11
 8002344:	e017      	b.n	8002376 <FIND_PINSOURCE+0xb8>
	else if(Pin == GPIO_Pin_12) return GPIO_PinSource12;
 8002346:	687b      	ldr	r3, [r7, #4]
 8002348:	f5b3 5f80 	cmp.w	r3, #4096	; 0x1000
 800234c:	d101      	bne.n	8002352 <FIND_PINSOURCE+0x94>
 800234e:	230c      	movs	r3, #12
 8002350:	e011      	b.n	8002376 <FIND_PINSOURCE+0xb8>
	else if(Pin == GPIO_Pin_13) return GPIO_PinSource13;
 8002352:	687b      	ldr	r3, [r7, #4]
 8002354:	f5b3 5f00 	cmp.w	r3, #8192	; 0x2000
 8002358:	d101      	bne.n	800235e <FIND_PINSOURCE+0xa0>
 800235a:	230d      	movs	r3, #13
 800235c:	e00b      	b.n	8002376 <FIND_PINSOURCE+0xb8>
	else if(Pin == GPIO_Pin_14) return GPIO_PinSource14;
 800235e:	687b      	ldr	r3, [r7, #4]
 8002360:	f5b3 4f80 	cmp.w	r3, #16384	; 0x4000
 8002364:	d101      	bne.n	800236a <FIND_PINSOURCE+0xac>
 8002366:	230e      	movs	r3, #14
 8002368:	e005      	b.n	8002376 <FIND_PINSOURCE+0xb8>
	else if(Pin == GPIO_Pin_15) return GPIO_PinSource15;
 800236a:	687b      	ldr	r3, [r7, #4]
 800236c:	f5b3 4f00 	cmp.w	r3, #32768	; 0x8000
 8002370:	d101      	bne.n	8002376 <FIND_PINSOURCE+0xb8>
 8002372:	230f      	movs	r3, #15
 8002374:	e7ff      	b.n	8002376 <FIND_PINSOURCE+0xb8>
}
 8002376:	4618      	mov	r0, r3
 8002378:	370c      	adds	r7, #12
 800237a:	46bd      	mov	sp, r7
 800237c:	f85d 7b04 	ldr.w	r7, [sp], #4
 8002380:	4770      	bx	lr
	...

08002384 <Reset_Handler>:

    .section  .text.Reset_Handler
  .weak  Reset_Handler
  .type  Reset_Handler, %function
Reset_Handler:  
  ldr   sp, =_estack    /* Atollic update: set stack pointer */
 8002384:	f8df d034 	ldr.w	sp, [pc, #52]	; 80023bc <LoopFillZerobss+0x14>
  
/* Copy the data segment initializers from flash to SRAM */  
  movs  r1, #0
 8002388:	2100      	movs	r1, #0
  b  LoopCopyDataInit
 800238a:	e003      	b.n	8002394 <LoopCopyDataInit>

0800238c <CopyDataInit>:

CopyDataInit:
  ldr  r3, =_sidata
 800238c:	4b0c      	ldr	r3, [pc, #48]	; (80023c0 <LoopFillZerobss+0x18>)
  ldr  r3, [r3, r1]
 800238e:	585b      	ldr	r3, [r3, r1]
  str  r3, [r0, r1]
 8002390:	5043      	str	r3, [r0, r1]
  adds  r1, r1, #4
 8002392:	3104      	adds	r1, #4

08002394 <LoopCopyDataInit>:
    
LoopCopyDataInit:
  ldr  r0, =_sdata
 8002394:	480b      	ldr	r0, [pc, #44]	; (80023c4 <LoopFillZerobss+0x1c>)
  ldr  r3, =_edata
 8002396:	4b0c      	ldr	r3, [pc, #48]	; (80023c8 <LoopFillZerobss+0x20>)
  adds  r2, r0, r1
 8002398:	1842      	adds	r2, r0, r1
  cmp  r2, r3
 800239a:	429a      	cmp	r2, r3
  bcc  CopyDataInit
 800239c:	d3f6      	bcc.n	800238c <CopyDataInit>
  ldr  r2, =_sbss
 800239e:	4a0b      	ldr	r2, [pc, #44]	; (80023cc <LoopFillZerobss+0x24>)
  b  LoopFillZerobss
 80023a0:	e002      	b.n	80023a8 <LoopFillZerobss>

080023a2 <FillZerobss>:
/* Zero fill the bss segment. */  
FillZerobss:
  movs  r3, #0
 80023a2:	2300      	movs	r3, #0
  str  r3, [r2], #4
 80023a4:	f842 3b04 	str.w	r3, [r2], #4

080023a8 <LoopFillZerobss>:
    
LoopFillZerobss:
  ldr  r3, = _ebss
 80023a8:	4b09      	ldr	r3, [pc, #36]	; (80023d0 <LoopFillZerobss+0x28>)
  cmp  r2, r3
 80023aa:	429a      	cmp	r2, r3
  bcc  FillZerobss
 80023ac:	d3f9      	bcc.n	80023a2 <FillZerobss>

/* Call the clock system intitialization function.*/
  bl  SystemInit   
 80023ae:	f000 f83b 	bl	8002428 <SystemInit>
/* Call static constructors */
    bl __libc_init_array
 80023b2:	f000 f967 	bl	8002684 <__libc_init_array>
/* Call the application's entry point.*/
  bl  main
 80023b6:	f7ff faa1 	bl	80018fc <main>
  bx  lr    
 80023ba:	4770      	bx	lr
  ldr   sp, =_estack    /* Atollic update: set stack pointer */
 80023bc:	20030000 	.word	0x20030000
  ldr  r3, =_sidata
 80023c0:	08005778 	.word	0x08005778
  ldr  r0, =_sdata
 80023c4:	20000000 	.word	0x20000000
  ldr  r3, =_edata
 80023c8:	2000070c 	.word	0x2000070c
  ldr  r2, =_sbss
 80023cc:	2000070c 	.word	0x2000070c
  ldr  r3, = _ebss
 80023d0:	2000079c 	.word	0x2000079c

080023d4 <ADC_IRQHandler>:
 * @retval None       
*/
    .section  .text.Default_Handler,"ax",%progbits
Default_Handler:
Infinite_Loop:
  b  Infinite_Loop
 80023d4:	e7fe      	b.n	80023d4 <ADC_IRQHandler>

080023d6 <NMI_Handler>:
  * @brief   This function handles NMI exception.
  * @param  None
  * @retval None
  */
void NMI_Handler(void)
{
 80023d6:	b480      	push	{r7}
 80023d8:	af00      	add	r7, sp, #0
}
 80023da:	bf00      	nop
 80023dc:	46bd      	mov	sp, r7
 80023de:	f85d 7b04 	ldr.w	r7, [sp], #4
 80023e2:	4770      	bx	lr

080023e4 <HardFault_Handler>:
  * @brief  This function handles Hard Fault exception.
  * @param  None
  * @retval None
  */
void HardFault_Handler(void)
{
 80023e4:	b480      	push	{r7}
 80023e6:	af00      	add	r7, sp, #0
  /* Go to infinite loop when Hard Fault exception occurs */
  while (1)
 80023e8:	e7fe      	b.n	80023e8 <HardFault_Handler+0x4>

080023ea <MemManage_Handler>:
  * @brief  This function handles Memory Manage exception.
  * @param  None
  * @retval None
  */
void MemManage_Handler(void)
{
 80023ea:	b480      	push	{r7}
 80023ec:	af00      	add	r7, sp, #0
  /* Go to infinite loop when Memory Manage exception occurs */
  while (1)
 80023ee:	e7fe      	b.n	80023ee <MemManage_Handler+0x4>

080023f0 <BusFault_Handler>:
  * @brief  This function handles Bus Fault exception.
  * @param  None
  * @retval None
  */
void BusFault_Handler(void)
{
 80023f0:	b480      	push	{r7}
 80023f2:	af00      	add	r7, sp, #0
  /* Go to infinite loop when Bus Fault exception occurs */
  while (1)
 80023f4:	e7fe      	b.n	80023f4 <BusFault_Handler+0x4>

080023f6 <UsageFault_Handler>:
  * @brief  This function handles Usage Fault exception.
  * @param  None
  * @retval None
  */
void UsageFault_Handler(void)
{
 80023f6:	b480      	push	{r7}
 80023f8:	af00      	add	r7, sp, #0
  /* Go to infinite loop when Usage Fault exception occurs */
  while (1)
 80023fa:	e7fe      	b.n	80023fa <UsageFault_Handler+0x4>

080023fc <SVC_Handler>:
  * @brief  This function handles SVCall exception.
  * @param  None
  * @retval None
  */
void SVC_Handler(void)
{
 80023fc:	b480      	push	{r7}
 80023fe:	af00      	add	r7, sp, #0
}
 8002400:	bf00      	nop
 8002402:	46bd      	mov	sp, r7
 8002404:	f85d 7b04 	ldr.w	r7, [sp], #4
 8002408:	4770      	bx	lr

0800240a <DebugMon_Handler>:
  * @brief  This function handles Debug Monitor exception.
  * @param  None
  * @retval None
  */
void DebugMon_Handler(void)
{
 800240a:	b480      	push	{r7}
 800240c:	af00      	add	r7, sp, #0
}
 800240e:	bf00      	nop
 8002410:	46bd      	mov	sp, r7
 8002412:	f85d 7b04 	ldr.w	r7, [sp], #4
 8002416:	4770      	bx	lr

08002418 <PendSV_Handler>:
  * @brief  This function handles PendSVC exception.
  * @param  None
  * @retval None
  */
void PendSV_Handler(void)
{
 8002418:	b480      	push	{r7}
 800241a:	af00      	add	r7, sp, #0
}
 800241c:	bf00      	nop
 800241e:	46bd      	mov	sp, r7
 8002420:	f85d 7b04 	ldr.w	r7, [sp], #4
 8002424:	4770      	bx	lr
	...

08002428 <SystemInit>:
  *         SystemFrequency variable.
  * @param  None
  * @retval None
  */
void SystemInit(void)
{
 8002428:	b580      	push	{r7, lr}
 800242a:	af00      	add	r7, sp, #0
  /* FPU settings ------------------------------------------------------------*/
  #if (__FPU_PRESENT == 1) && (__FPU_USED == 1)
    SCB->CPACR |= ((3UL << 10*2)|(3UL << 11*2));  /* set CP10 and CP11 Full Access */
 800242c:	4a16      	ldr	r2, [pc, #88]	; (8002488 <SystemInit+0x60>)
 800242e:	4b16      	ldr	r3, [pc, #88]	; (8002488 <SystemInit+0x60>)
 8002430:	f8d3 3088 	ldr.w	r3, [r3, #136]	; 0x88
 8002434:	f443 0370 	orr.w	r3, r3, #15728640	; 0xf00000
 8002438:	f8c2 3088 	str.w	r3, [r2, #136]	; 0x88
  #endif
  /* Reset the RCC clock configuration to the default reset state ------------*/
  /* Set HSION bit */
  RCC->CR |= (uint32_t)0x00000001;
 800243c:	4a13      	ldr	r2, [pc, #76]	; (800248c <SystemInit+0x64>)
 800243e:	4b13      	ldr	r3, [pc, #76]	; (800248c <SystemInit+0x64>)
 8002440:	681b      	ldr	r3, [r3, #0]
 8002442:	f043 0301 	orr.w	r3, r3, #1
 8002446:	6013      	str	r3, [r2, #0]

  /* Reset CFGR register */
  RCC->CFGR = 0x00000000;
 8002448:	4b10      	ldr	r3, [pc, #64]	; (800248c <SystemInit+0x64>)
 800244a:	2200      	movs	r2, #0
 800244c:	609a      	str	r2, [r3, #8]

  /* Reset HSEON, CSSON and PLLON bits */
  RCC->CR &= (uint32_t)0xFEF6FFFF;
 800244e:	4a0f      	ldr	r2, [pc, #60]	; (800248c <SystemInit+0x64>)
 8002450:	4b0e      	ldr	r3, [pc, #56]	; (800248c <SystemInit+0x64>)
 8002452:	681b      	ldr	r3, [r3, #0]
 8002454:	f023 7384 	bic.w	r3, r3, #17301504	; 0x1080000
 8002458:	f423 3380 	bic.w	r3, r3, #65536	; 0x10000
 800245c:	6013      	str	r3, [r2, #0]

  /* Reset PLLCFGR register */
  RCC->PLLCFGR = 0x24003010;
 800245e:	4b0b      	ldr	r3, [pc, #44]	; (800248c <SystemInit+0x64>)
 8002460:	4a0b      	ldr	r2, [pc, #44]	; (8002490 <SystemInit+0x68>)
 8002462:	605a      	str	r2, [r3, #4]

  /* Reset HSEBYP bit */
  RCC->CR &= (uint32_t)0xFFFBFFFF;
 8002464:	4a09      	ldr	r2, [pc, #36]	; (800248c <SystemInit+0x64>)
 8002466:	4b09      	ldr	r3, [pc, #36]	; (800248c <SystemInit+0x64>)
 8002468:	681b      	ldr	r3, [r3, #0]
 800246a:	f423 2380 	bic.w	r3, r3, #262144	; 0x40000
 800246e:	6013      	str	r3, [r2, #0]

  /* Disable all interrupts */
  RCC->CIR = 0x00000000;
 8002470:	4b06      	ldr	r3, [pc, #24]	; (800248c <SystemInit+0x64>)
 8002472:	2200      	movs	r2, #0
 8002474:	60da      	str	r2, [r3, #12]
  SystemInit_ExtMemCtl(); 
#endif /* DATA_IN_ExtSRAM || DATA_IN_ExtSDRAM */
         
  /* Configure the System clock source, PLL Multiplier and Divider factors, 
     AHB/APBx prescalers and Flash settings ----------------------------------*/
  SetSysClock();
 8002476:	f000 f889 	bl	800258c <SetSysClock>

  /* Configure the Vector Table location add offset address ------------------*/
#ifdef VECT_TAB_SRAM
  SCB->VTOR = SRAM_BASE | VECT_TAB_OFFSET; /* Vector Table Relocation in Internal SRAM */
#else
  SCB->VTOR = FLASH_BASE | VECT_TAB_OFFSET; /* Vector Table Relocation in Internal FLASH */
 800247a:	4b03      	ldr	r3, [pc, #12]	; (8002488 <SystemInit+0x60>)
 800247c:	f04f 6200 	mov.w	r2, #134217728	; 0x8000000
 8002480:	609a      	str	r2, [r3, #8]
#endif
}
 8002482:	bf00      	nop
 8002484:	bd80      	pop	{r7, pc}
 8002486:	bf00      	nop
 8002488:	e000ed00 	.word	0xe000ed00
 800248c:	40023800 	.word	0x40023800
 8002490:	24003010 	.word	0x24003010

08002494 <SystemCoreClockUpdate>:
  *     
  * @param  None
  * @retval None
  */
void SystemCoreClockUpdate(void)
{
 8002494:	b480      	push	{r7}
 8002496:	b087      	sub	sp, #28
 8002498:	af00      	add	r7, sp, #0
  uint32_t tmp = 0, pllvco = 0, pllp = 2, pllsource = 0, pllm = 2;
 800249a:	2300      	movs	r3, #0
 800249c:	613b      	str	r3, [r7, #16]
 800249e:	2300      	movs	r3, #0
 80024a0:	617b      	str	r3, [r7, #20]
 80024a2:	2302      	movs	r3, #2
 80024a4:	60fb      	str	r3, [r7, #12]
 80024a6:	2300      	movs	r3, #0
 80024a8:	60bb      	str	r3, [r7, #8]
 80024aa:	2302      	movs	r3, #2
 80024ac:	607b      	str	r3, [r7, #4]
  
  /* Get SYSCLK source -------------------------------------------------------*/
  tmp = RCC->CFGR & RCC_CFGR_SWS;
 80024ae:	4b32      	ldr	r3, [pc, #200]	; (8002578 <SystemCoreClockUpdate+0xe4>)
 80024b0:	689b      	ldr	r3, [r3, #8]
 80024b2:	f003 030c 	and.w	r3, r3, #12
 80024b6:	613b      	str	r3, [r7, #16]

  switch (tmp)
 80024b8:	693b      	ldr	r3, [r7, #16]
 80024ba:	2b04      	cmp	r3, #4
 80024bc:	d007      	beq.n	80024ce <SystemCoreClockUpdate+0x3a>
 80024be:	2b08      	cmp	r3, #8
 80024c0:	d009      	beq.n	80024d6 <SystemCoreClockUpdate+0x42>
 80024c2:	2b00      	cmp	r3, #0
 80024c4:	d13d      	bne.n	8002542 <SystemCoreClockUpdate+0xae>
  {
    case 0x00:  /* HSI used as system clock source */
      SystemCoreClock = HSI_VALUE;
 80024c6:	4b2d      	ldr	r3, [pc, #180]	; (800257c <SystemCoreClockUpdate+0xe8>)
 80024c8:	4a2d      	ldr	r2, [pc, #180]	; (8002580 <SystemCoreClockUpdate+0xec>)
 80024ca:	601a      	str	r2, [r3, #0]
      break;
 80024cc:	e03d      	b.n	800254a <SystemCoreClockUpdate+0xb6>
    case 0x04:  /* HSE used as system clock source */
      SystemCoreClock = HSE_VALUE;
 80024ce:	4b2b      	ldr	r3, [pc, #172]	; (800257c <SystemCoreClockUpdate+0xe8>)
 80024d0:	4a2c      	ldr	r2, [pc, #176]	; (8002584 <SystemCoreClockUpdate+0xf0>)
 80024d2:	601a      	str	r2, [r3, #0]
      break;
 80024d4:	e039      	b.n	800254a <SystemCoreClockUpdate+0xb6>
    case 0x08:  /* PLL used as system clock source */

      /* PLL_VCO = (HSE_VALUE or HSI_VALUE / PLL_M) * PLL_N
         SYSCLK = PLL_VCO / PLL_P
         */    
      pllsource = (RCC->PLLCFGR & RCC_PLLCFGR_PLLSRC) >> 22;
 80024d6:	4b28      	ldr	r3, [pc, #160]	; (8002578 <SystemCoreClockUpdate+0xe4>)
 80024d8:	685b      	ldr	r3, [r3, #4]
 80024da:	0d9b      	lsrs	r3, r3, #22
 80024dc:	f003 0301 	and.w	r3, r3, #1
 80024e0:	60bb      	str	r3, [r7, #8]
      pllm = RCC->PLLCFGR & RCC_PLLCFGR_PLLM;
 80024e2:	4b25      	ldr	r3, [pc, #148]	; (8002578 <SystemCoreClockUpdate+0xe4>)
 80024e4:	685b      	ldr	r3, [r3, #4]
 80024e6:	f003 033f 	and.w	r3, r3, #63	; 0x3f
 80024ea:	607b      	str	r3, [r7, #4]
      
      if (pllsource != 0)
 80024ec:	68bb      	ldr	r3, [r7, #8]
 80024ee:	2b00      	cmp	r3, #0
 80024f0:	d00c      	beq.n	800250c <SystemCoreClockUpdate+0x78>
      {
        /* HSE used as PLL clock source */
        pllvco = (HSE_VALUE / pllm) * ((RCC->PLLCFGR & RCC_PLLCFGR_PLLN) >> 6);
 80024f2:	4a24      	ldr	r2, [pc, #144]	; (8002584 <SystemCoreClockUpdate+0xf0>)
 80024f4:	687b      	ldr	r3, [r7, #4]
 80024f6:	fbb2 f3f3 	udiv	r3, r2, r3
 80024fa:	4a1f      	ldr	r2, [pc, #124]	; (8002578 <SystemCoreClockUpdate+0xe4>)
 80024fc:	6852      	ldr	r2, [r2, #4]
 80024fe:	0992      	lsrs	r2, r2, #6
 8002500:	f3c2 0208 	ubfx	r2, r2, #0, #9
 8002504:	fb02 f303 	mul.w	r3, r2, r3
 8002508:	617b      	str	r3, [r7, #20]
 800250a:	e00b      	b.n	8002524 <SystemCoreClockUpdate+0x90>
      }
      else
      {
        /* HSI used as PLL clock source */
        pllvco = (HSI_VALUE / pllm) * ((RCC->PLLCFGR & RCC_PLLCFGR_PLLN) >> 6);      
 800250c:	4a1c      	ldr	r2, [pc, #112]	; (8002580 <SystemCoreClockUpdate+0xec>)
 800250e:	687b      	ldr	r3, [r7, #4]
 8002510:	fbb2 f3f3 	udiv	r3, r2, r3
 8002514:	4a18      	ldr	r2, [pc, #96]	; (8002578 <SystemCoreClockUpdate+0xe4>)
 8002516:	6852      	ldr	r2, [r2, #4]
 8002518:	0992      	lsrs	r2, r2, #6
 800251a:	f3c2 0208 	ubfx	r2, r2, #0, #9
 800251e:	fb02 f303 	mul.w	r3, r2, r3
 8002522:	617b      	str	r3, [r7, #20]
      }

      pllp = (((RCC->PLLCFGR & RCC_PLLCFGR_PLLP) >>16) + 1 ) *2;
 8002524:	4b14      	ldr	r3, [pc, #80]	; (8002578 <SystemCoreClockUpdate+0xe4>)
 8002526:	685b      	ldr	r3, [r3, #4]
 8002528:	0c1b      	lsrs	r3, r3, #16
 800252a:	f003 0303 	and.w	r3, r3, #3
 800252e:	3301      	adds	r3, #1
 8002530:	005b      	lsls	r3, r3, #1
 8002532:	60fb      	str	r3, [r7, #12]
      SystemCoreClock = pllvco/pllp;
 8002534:	697a      	ldr	r2, [r7, #20]
 8002536:	68fb      	ldr	r3, [r7, #12]
 8002538:	fbb2 f3f3 	udiv	r3, r2, r3
 800253c:	4a0f      	ldr	r2, [pc, #60]	; (800257c <SystemCoreClockUpdate+0xe8>)
 800253e:	6013      	str	r3, [r2, #0]
      break;
 8002540:	e003      	b.n	800254a <SystemCoreClockUpdate+0xb6>
    default:
      SystemCoreClock = HSI_VALUE;
 8002542:	4b0e      	ldr	r3, [pc, #56]	; (800257c <SystemCoreClockUpdate+0xe8>)
 8002544:	4a0e      	ldr	r2, [pc, #56]	; (8002580 <SystemCoreClockUpdate+0xec>)
 8002546:	601a      	str	r2, [r3, #0]
      break;
 8002548:	bf00      	nop
  }
  /* Compute HCLK frequency --------------------------------------------------*/
  /* Get HCLK prescaler */
  tmp = AHBPrescTable[((RCC->CFGR & RCC_CFGR_HPRE) >> 4)];
 800254a:	4b0b      	ldr	r3, [pc, #44]	; (8002578 <SystemCoreClockUpdate+0xe4>)
 800254c:	689b      	ldr	r3, [r3, #8]
 800254e:	091b      	lsrs	r3, r3, #4
 8002550:	f003 030f 	and.w	r3, r3, #15
 8002554:	4a0c      	ldr	r2, [pc, #48]	; (8002588 <SystemCoreClockUpdate+0xf4>)
 8002556:	5cd3      	ldrb	r3, [r2, r3]
 8002558:	b2db      	uxtb	r3, r3
 800255a:	613b      	str	r3, [r7, #16]
  /* HCLK frequency */
  SystemCoreClock >>= tmp;
 800255c:	4b07      	ldr	r3, [pc, #28]	; (800257c <SystemCoreClockUpdate+0xe8>)
 800255e:	681a      	ldr	r2, [r3, #0]
 8002560:	693b      	ldr	r3, [r7, #16]
 8002562:	fa22 f303 	lsr.w	r3, r2, r3
 8002566:	4a05      	ldr	r2, [pc, #20]	; (800257c <SystemCoreClockUpdate+0xe8>)
 8002568:	6013      	str	r3, [r2, #0]
}
 800256a:	bf00      	nop
 800256c:	371c      	adds	r7, #28
 800256e:	46bd      	mov	sp, r7
 8002570:	f85d 7b04 	ldr.w	r7, [sp], #4
 8002574:	4770      	bx	lr
 8002576:	bf00      	nop
 8002578:	40023800 	.word	0x40023800
 800257c:	20000088 	.word	0x20000088
 8002580:	00f42400 	.word	0x00f42400
 8002584:	007a1200 	.word	0x007a1200
 8002588:	2000008c 	.word	0x2000008c

0800258c <SetSysClock>:
  *         is reset to the default reset state (done in SystemInit() function).   
  * @param  None
  * @retval None
  */
static void SetSysClock(void)
{
 800258c:	b480      	push	{r7}
 800258e:	b083      	sub	sp, #12
 8002590:	af00      	add	r7, sp, #0
/******************************************************************************/
/*            PLL (clocked by HSE) used as System clock source                */
/******************************************************************************/
  __IO uint32_t StartUpCounter = 0, HSEStatus = 0;
 8002592:	2300      	movs	r3, #0
 8002594:	607b      	str	r3, [r7, #4]
 8002596:	2300      	movs	r3, #0
 8002598:	603b      	str	r3, [r7, #0]
  
  /* Enable HSE */
  RCC->CR |= ((uint32_t)RCC_CR_HSEON);
 800259a:	4a36      	ldr	r2, [pc, #216]	; (8002674 <SetSysClock+0xe8>)
 800259c:	4b35      	ldr	r3, [pc, #212]	; (8002674 <SetSysClock+0xe8>)
 800259e:	681b      	ldr	r3, [r3, #0]
 80025a0:	f443 3380 	orr.w	r3, r3, #65536	; 0x10000
 80025a4:	6013      	str	r3, [r2, #0]
 
  /* Wait till HSE is ready and if Time out is reached exit */
  do
  {
    HSEStatus = RCC->CR & RCC_CR_HSERDY;
 80025a6:	4b33      	ldr	r3, [pc, #204]	; (8002674 <SetSysClock+0xe8>)
 80025a8:	681b      	ldr	r3, [r3, #0]
 80025aa:	f403 3300 	and.w	r3, r3, #131072	; 0x20000
 80025ae:	603b      	str	r3, [r7, #0]
    StartUpCounter++;
 80025b0:	687b      	ldr	r3, [r7, #4]
 80025b2:	3301      	adds	r3, #1
 80025b4:	607b      	str	r3, [r7, #4]
  } while((HSEStatus == 0) && (StartUpCounter != HSE_STARTUP_TIMEOUT));
 80025b6:	683b      	ldr	r3, [r7, #0]
 80025b8:	2b00      	cmp	r3, #0
 80025ba:	d103      	bne.n	80025c4 <SetSysClock+0x38>
 80025bc:	687b      	ldr	r3, [r7, #4]
 80025be:	f5b3 6fa0 	cmp.w	r3, #1280	; 0x500
 80025c2:	d1f0      	bne.n	80025a6 <SetSysClock+0x1a>

  if ((RCC->CR & RCC_CR_HSERDY) != RESET)
 80025c4:	4b2b      	ldr	r3, [pc, #172]	; (8002674 <SetSysClock+0xe8>)
 80025c6:	681b      	ldr	r3, [r3, #0]
 80025c8:	f403 3300 	and.w	r3, r3, #131072	; 0x20000
 80025cc:	2b00      	cmp	r3, #0
 80025ce:	d002      	beq.n	80025d6 <SetSysClock+0x4a>
  {
    HSEStatus = (uint32_t)0x01;
 80025d0:	2301      	movs	r3, #1
 80025d2:	603b      	str	r3, [r7, #0]
 80025d4:	e001      	b.n	80025da <SetSysClock+0x4e>
  }
  else
  {
    HSEStatus = (uint32_t)0x00;
 80025d6:	2300      	movs	r3, #0
 80025d8:	603b      	str	r3, [r7, #0]
  }

  if (HSEStatus == (uint32_t)0x01)
 80025da:	683b      	ldr	r3, [r7, #0]
 80025dc:	2b01      	cmp	r3, #1
 80025de:	d142      	bne.n	8002666 <SetSysClock+0xda>
  {
    /* Select regulator voltage output Scale 1 mode */
    RCC->APB1ENR |= RCC_APB1ENR_PWREN;
 80025e0:	4a24      	ldr	r2, [pc, #144]	; (8002674 <SetSysClock+0xe8>)
 80025e2:	4b24      	ldr	r3, [pc, #144]	; (8002674 <SetSysClock+0xe8>)
 80025e4:	6c1b      	ldr	r3, [r3, #64]	; 0x40
 80025e6:	f043 5380 	orr.w	r3, r3, #268435456	; 0x10000000
 80025ea:	6413      	str	r3, [r2, #64]	; 0x40
    PWR->CR |= PWR_CR_VOS;
 80025ec:	4a22      	ldr	r2, [pc, #136]	; (8002678 <SetSysClock+0xec>)
 80025ee:	4b22      	ldr	r3, [pc, #136]	; (8002678 <SetSysClock+0xec>)
 80025f0:	681b      	ldr	r3, [r3, #0]
 80025f2:	f443 4340 	orr.w	r3, r3, #49152	; 0xc000
 80025f6:	6013      	str	r3, [r2, #0]

    /* HCLK = SYSCLK / 1*/
    RCC->CFGR |= RCC_CFGR_HPRE_DIV1;
 80025f8:	4a1e      	ldr	r2, [pc, #120]	; (8002674 <SetSysClock+0xe8>)
 80025fa:	4b1e      	ldr	r3, [pc, #120]	; (8002674 <SetSysClock+0xe8>)
 80025fc:	689b      	ldr	r3, [r3, #8]
 80025fe:	6093      	str	r3, [r2, #8]

#if defined (STM32F40_41xxx) || defined (STM32F42_43xxx)      
    /* PCLK2 = HCLK / 2*/
    RCC->CFGR |= RCC_CFGR_PPRE2_DIV2;
 8002600:	4a1c      	ldr	r2, [pc, #112]	; (8002674 <SetSysClock+0xe8>)
 8002602:	4b1c      	ldr	r3, [pc, #112]	; (8002674 <SetSysClock+0xe8>)
 8002604:	689b      	ldr	r3, [r3, #8]
 8002606:	f443 4300 	orr.w	r3, r3, #32768	; 0x8000
 800260a:	6093      	str	r3, [r2, #8]
    
    /* PCLK1 = HCLK / 4*/
    RCC->CFGR |= RCC_CFGR_PPRE1_DIV4;
 800260c:	4a19      	ldr	r2, [pc, #100]	; (8002674 <SetSysClock+0xe8>)
 800260e:	4b19      	ldr	r3, [pc, #100]	; (8002674 <SetSysClock+0xe8>)
 8002610:	689b      	ldr	r3, [r3, #8]
 8002612:	f443 53a0 	orr.w	r3, r3, #5120	; 0x1400
 8002616:	6093      	str	r3, [r2, #8]
    /* PCLK1 = HCLK / 4*/
    RCC->CFGR |= RCC_CFGR_PPRE1_DIV2;
#endif /* STM32F401xx */
   
    /* Configure the main PLL */
    RCC->PLLCFGR = PLL_M | (PLL_N << 6) | (((PLL_P >> 1) -1) << 16) |
 8002618:	4b16      	ldr	r3, [pc, #88]	; (8002674 <SetSysClock+0xe8>)
 800261a:	4a18      	ldr	r2, [pc, #96]	; (800267c <SetSysClock+0xf0>)
 800261c:	605a      	str	r2, [r3, #4]
                   (RCC_PLLCFGR_PLLSRC_HSE) | (PLL_Q << 24);

    /* Enable the main PLL */
    RCC->CR |= RCC_CR_PLLON;
 800261e:	4a15      	ldr	r2, [pc, #84]	; (8002674 <SetSysClock+0xe8>)
 8002620:	4b14      	ldr	r3, [pc, #80]	; (8002674 <SetSysClock+0xe8>)
 8002622:	681b      	ldr	r3, [r3, #0]
 8002624:	f043 7380 	orr.w	r3, r3, #16777216	; 0x1000000
 8002628:	6013      	str	r3, [r2, #0]

    /* Wait till the main PLL is ready */
    while((RCC->CR & RCC_CR_PLLRDY) == 0)
 800262a:	bf00      	nop
 800262c:	4b11      	ldr	r3, [pc, #68]	; (8002674 <SetSysClock+0xe8>)
 800262e:	681b      	ldr	r3, [r3, #0]
 8002630:	f003 7300 	and.w	r3, r3, #33554432	; 0x2000000
 8002634:	2b00      	cmp	r3, #0
 8002636:	d0f9      	beq.n	800262c <SetSysClock+0xa0>
    {
    }
   
#if defined (STM32F40_41xxx) || defined (STM32F42_43xxx)      
    /* Configure Flash prefetch, Instruction cache, Data cache and wait state */
    FLASH->ACR = FLASH_ACR_PRFTEN | FLASH_ACR_ICEN |FLASH_ACR_DCEN |FLASH_ACR_LATENCY_5WS;
 8002638:	4b11      	ldr	r3, [pc, #68]	; (8002680 <SetSysClock+0xf4>)
 800263a:	f240 7205 	movw	r2, #1797	; 0x705
 800263e:	601a      	str	r2, [r3, #0]
    /* Configure Flash prefetch, Instruction cache, Data cache and wait state */
    FLASH->ACR = FLASH_ACR_PRFTEN | FLASH_ACR_ICEN |FLASH_ACR_DCEN |FLASH_ACR_LATENCY_2WS;
#endif /* STM32F401xx */

    /* Select the main PLL as system clock source */
    RCC->CFGR &= (uint32_t)((uint32_t)~(RCC_CFGR_SW));
 8002640:	4a0c      	ldr	r2, [pc, #48]	; (8002674 <SetSysClock+0xe8>)
 8002642:	4b0c      	ldr	r3, [pc, #48]	; (8002674 <SetSysClock+0xe8>)
 8002644:	689b      	ldr	r3, [r3, #8]
 8002646:	f023 0303 	bic.w	r3, r3, #3
 800264a:	6093      	str	r3, [r2, #8]
    RCC->CFGR |= RCC_CFGR_SW_PLL;
 800264c:	4a09      	ldr	r2, [pc, #36]	; (8002674 <SetSysClock+0xe8>)
 800264e:	4b09      	ldr	r3, [pc, #36]	; (8002674 <SetSysClock+0xe8>)
 8002650:	689b      	ldr	r3, [r3, #8]
 8002652:	f043 0302 	orr.w	r3, r3, #2
 8002656:	6093      	str	r3, [r2, #8]

    /* Wait till the main PLL is used as system clock source */
    while ((RCC->CFGR & (uint32_t)RCC_CFGR_SWS ) != RCC_CFGR_SWS_PLL);
 8002658:	bf00      	nop
 800265a:	4b06      	ldr	r3, [pc, #24]	; (8002674 <SetSysClock+0xe8>)
 800265c:	689b      	ldr	r3, [r3, #8]
 800265e:	f003 030c 	and.w	r3, r3, #12
 8002662:	2b08      	cmp	r3, #8
 8002664:	d1f9      	bne.n	800265a <SetSysClock+0xce>
  else
  { /* If HSE fails to start-up, the application will have wrong clock
         configuration. User can add here some code to deal with this error */
  }

}
 8002666:	bf00      	nop
 8002668:	370c      	adds	r7, #12
 800266a:	46bd      	mov	sp, r7
 800266c:	f85d 7b04 	ldr.w	r7, [sp], #4
 8002670:	4770      	bx	lr
 8002672:	bf00      	nop
 8002674:	40023800 	.word	0x40023800
 8002678:	40007000 	.word	0x40007000
 800267c:	07402d04 	.word	0x07402d04
 8002680:	40023c00 	.word	0x40023c00

08002684 <__libc_init_array>:
 8002684:	b570      	push	{r4, r5, r6, lr}
 8002686:	4e0d      	ldr	r6, [pc, #52]	; (80026bc <__libc_init_array+0x38>)
 8002688:	4c0d      	ldr	r4, [pc, #52]	; (80026c0 <__libc_init_array+0x3c>)
 800268a:	1ba4      	subs	r4, r4, r6
 800268c:	10a4      	asrs	r4, r4, #2
 800268e:	2500      	movs	r5, #0
 8002690:	42a5      	cmp	r5, r4
 8002692:	d109      	bne.n	80026a8 <__libc_init_array+0x24>
 8002694:	4e0b      	ldr	r6, [pc, #44]	; (80026c4 <__libc_init_array+0x40>)
 8002696:	4c0c      	ldr	r4, [pc, #48]	; (80026c8 <__libc_init_array+0x44>)
 8002698:	f002 ff14 	bl	80054c4 <_init>
 800269c:	1ba4      	subs	r4, r4, r6
 800269e:	10a4      	asrs	r4, r4, #2
 80026a0:	2500      	movs	r5, #0
 80026a2:	42a5      	cmp	r5, r4
 80026a4:	d105      	bne.n	80026b2 <__libc_init_array+0x2e>
 80026a6:	bd70      	pop	{r4, r5, r6, pc}
 80026a8:	f856 3025 	ldr.w	r3, [r6, r5, lsl #2]
 80026ac:	4798      	blx	r3
 80026ae:	3501      	adds	r5, #1
 80026b0:	e7ee      	b.n	8002690 <__libc_init_array+0xc>
 80026b2:	f856 3025 	ldr.w	r3, [r6, r5, lsl #2]
 80026b6:	4798      	blx	r3
 80026b8:	3501      	adds	r5, #1
 80026ba:	e7f2      	b.n	80026a2 <__libc_init_array+0x1e>
 80026bc:	08005770 	.word	0x08005770
 80026c0:	08005770 	.word	0x08005770
 80026c4:	08005770 	.word	0x08005770
 80026c8:	08005774 	.word	0x08005774

080026cc <sprintf>:
 80026cc:	b40e      	push	{r1, r2, r3}
 80026ce:	b500      	push	{lr}
 80026d0:	b09c      	sub	sp, #112	; 0x70
 80026d2:	f44f 7102 	mov.w	r1, #520	; 0x208
 80026d6:	ab1d      	add	r3, sp, #116	; 0x74
 80026d8:	f8ad 1014 	strh.w	r1, [sp, #20]
 80026dc:	9002      	str	r0, [sp, #8]
 80026de:	9006      	str	r0, [sp, #24]
 80026e0:	f06f 4100 	mvn.w	r1, #2147483648	; 0x80000000
 80026e4:	480a      	ldr	r0, [pc, #40]	; (8002710 <sprintf+0x44>)
 80026e6:	9104      	str	r1, [sp, #16]
 80026e8:	9107      	str	r1, [sp, #28]
 80026ea:	f64f 71ff 	movw	r1, #65535	; 0xffff
 80026ee:	f853 2b04 	ldr.w	r2, [r3], #4
 80026f2:	f8ad 1016 	strh.w	r1, [sp, #22]
 80026f6:	6800      	ldr	r0, [r0, #0]
 80026f8:	9301      	str	r3, [sp, #4]
 80026fa:	a902      	add	r1, sp, #8
 80026fc:	f000 f80c 	bl	8002718 <_svfprintf_r>
 8002700:	9b02      	ldr	r3, [sp, #8]
 8002702:	2200      	movs	r2, #0
 8002704:	701a      	strb	r2, [r3, #0]
 8002706:	b01c      	add	sp, #112	; 0x70
 8002708:	f85d eb04 	ldr.w	lr, [sp], #4
 800270c:	b003      	add	sp, #12
 800270e:	4770      	bx	lr
 8002710:	2000009c 	.word	0x2000009c
 8002714:	00000000 	.word	0x00000000

08002718 <_svfprintf_r>:
 8002718:	e92d 4ff0 	stmdb	sp!, {r4, r5, r6, r7, r8, r9, sl, fp, lr}
 800271c:	b0bd      	sub	sp, #244	; 0xf4
 800271e:	468a      	mov	sl, r1
 8002720:	4615      	mov	r5, r2
 8002722:	461f      	mov	r7, r3
 8002724:	4683      	mov	fp, r0
 8002726:	f001 fe25 	bl	8004374 <_localeconv_r>
 800272a:	6803      	ldr	r3, [r0, #0]
 800272c:	930d      	str	r3, [sp, #52]	; 0x34
 800272e:	4618      	mov	r0, r3
 8002730:	f7fd fdae 	bl	8000290 <strlen>
 8002734:	f8ba 300c 	ldrh.w	r3, [sl, #12]
 8002738:	9008      	str	r0, [sp, #32]
 800273a:	061b      	lsls	r3, r3, #24
 800273c:	d518      	bpl.n	8002770 <_svfprintf_r+0x58>
 800273e:	f8da 3010 	ldr.w	r3, [sl, #16]
 8002742:	b9ab      	cbnz	r3, 8002770 <_svfprintf_r+0x58>
 8002744:	2140      	movs	r1, #64	; 0x40
 8002746:	4658      	mov	r0, fp
 8002748:	f001 fe2a 	bl	80043a0 <_malloc_r>
 800274c:	f8ca 0000 	str.w	r0, [sl]
 8002750:	f8ca 0010 	str.w	r0, [sl, #16]
 8002754:	b948      	cbnz	r0, 800276a <_svfprintf_r+0x52>
 8002756:	230c      	movs	r3, #12
 8002758:	f8cb 3000 	str.w	r3, [fp]
 800275c:	f04f 33ff 	mov.w	r3, #4294967295	; 0xffffffff
 8002760:	9309      	str	r3, [sp, #36]	; 0x24
 8002762:	9809      	ldr	r0, [sp, #36]	; 0x24
 8002764:	b03d      	add	sp, #244	; 0xf4
 8002766:	e8bd 8ff0 	ldmia.w	sp!, {r4, r5, r6, r7, r8, r9, sl, fp, pc}
 800276a:	2340      	movs	r3, #64	; 0x40
 800276c:	f8ca 3014 	str.w	r3, [sl, #20]
 8002770:	ed9f 7b99 	vldr	d7, [pc, #612]	; 80029d8 <_svfprintf_r+0x2c0>
 8002774:	ed8d 7b06 	vstr	d7, [sp, #24]
 8002778:	2300      	movs	r3, #0
 800277a:	ac2c      	add	r4, sp, #176	; 0xb0
 800277c:	941f      	str	r4, [sp, #124]	; 0x7c
 800277e:	9321      	str	r3, [sp, #132]	; 0x84
 8002780:	9320      	str	r3, [sp, #128]	; 0x80
 8002782:	9505      	str	r5, [sp, #20]
 8002784:	9303      	str	r3, [sp, #12]
 8002786:	9311      	str	r3, [sp, #68]	; 0x44
 8002788:	9310      	str	r3, [sp, #64]	; 0x40
 800278a:	9309      	str	r3, [sp, #36]	; 0x24
 800278c:	9d05      	ldr	r5, [sp, #20]
 800278e:	462b      	mov	r3, r5
 8002790:	f813 2b01 	ldrb.w	r2, [r3], #1
 8002794:	b112      	cbz	r2, 800279c <_svfprintf_r+0x84>
 8002796:	2a25      	cmp	r2, #37	; 0x25
 8002798:	f040 8083 	bne.w	80028a2 <_svfprintf_r+0x18a>
 800279c:	9b05      	ldr	r3, [sp, #20]
 800279e:	1aee      	subs	r6, r5, r3
 80027a0:	d00d      	beq.n	80027be <_svfprintf_r+0xa6>
 80027a2:	e884 0048 	stmia.w	r4, {r3, r6}
 80027a6:	9b21      	ldr	r3, [sp, #132]	; 0x84
 80027a8:	4433      	add	r3, r6
 80027aa:	9321      	str	r3, [sp, #132]	; 0x84
 80027ac:	9b20      	ldr	r3, [sp, #128]	; 0x80
 80027ae:	3301      	adds	r3, #1
 80027b0:	2b07      	cmp	r3, #7
 80027b2:	9320      	str	r3, [sp, #128]	; 0x80
 80027b4:	dc77      	bgt.n	80028a6 <_svfprintf_r+0x18e>
 80027b6:	3408      	adds	r4, #8
 80027b8:	9b09      	ldr	r3, [sp, #36]	; 0x24
 80027ba:	4433      	add	r3, r6
 80027bc:	9309      	str	r3, [sp, #36]	; 0x24
 80027be:	782b      	ldrb	r3, [r5, #0]
 80027c0:	2b00      	cmp	r3, #0
 80027c2:	f000 8729 	beq.w	8003618 <_svfprintf_r+0xf00>
 80027c6:	2300      	movs	r3, #0
 80027c8:	1c69      	adds	r1, r5, #1
 80027ca:	f88d 305f 	strb.w	r3, [sp, #95]	; 0x5f
 80027ce:	461a      	mov	r2, r3
 80027d0:	f04f 39ff 	mov.w	r9, #4294967295	; 0xffffffff
 80027d4:	930a      	str	r3, [sp, #40]	; 0x28
 80027d6:	461d      	mov	r5, r3
 80027d8:	200a      	movs	r0, #10
 80027da:	1c4e      	adds	r6, r1, #1
 80027dc:	7809      	ldrb	r1, [r1, #0]
 80027de:	9605      	str	r6, [sp, #20]
 80027e0:	9102      	str	r1, [sp, #8]
 80027e2:	9902      	ldr	r1, [sp, #8]
 80027e4:	3920      	subs	r1, #32
 80027e6:	2958      	cmp	r1, #88	; 0x58
 80027e8:	f200 8418 	bhi.w	800301c <_svfprintf_r+0x904>
 80027ec:	e8df f011 	tbh	[pc, r1, lsl #1]
 80027f0:	041600a6 	.word	0x041600a6
 80027f4:	00ab0416 	.word	0x00ab0416
 80027f8:	04160416 	.word	0x04160416
 80027fc:	04160416 	.word	0x04160416
 8002800:	04160416 	.word	0x04160416
 8002804:	006500ae 	.word	0x006500ae
 8002808:	00b70416 	.word	0x00b70416
 800280c:	041600ba 	.word	0x041600ba
 8002810:	00da00d7 	.word	0x00da00d7
 8002814:	00da00da 	.word	0x00da00da
 8002818:	00da00da 	.word	0x00da00da
 800281c:	00da00da 	.word	0x00da00da
 8002820:	00da00da 	.word	0x00da00da
 8002824:	04160416 	.word	0x04160416
 8002828:	04160416 	.word	0x04160416
 800282c:	04160416 	.word	0x04160416
 8002830:	04160416 	.word	0x04160416
 8002834:	04160416 	.word	0x04160416
 8002838:	012b0115 	.word	0x012b0115
 800283c:	012b0416 	.word	0x012b0416
 8002840:	04160416 	.word	0x04160416
 8002844:	04160416 	.word	0x04160416
 8002848:	041600ed 	.word	0x041600ed
 800284c:	03400416 	.word	0x03400416
 8002850:	04160416 	.word	0x04160416
 8002854:	04160416 	.word	0x04160416
 8002858:	03a80416 	.word	0x03a80416
 800285c:	04160416 	.word	0x04160416
 8002860:	04160086 	.word	0x04160086
 8002864:	04160416 	.word	0x04160416
 8002868:	04160416 	.word	0x04160416
 800286c:	04160416 	.word	0x04160416
 8002870:	04160416 	.word	0x04160416
 8002874:	01070416 	.word	0x01070416
 8002878:	012b006b 	.word	0x012b006b
 800287c:	012b012b 	.word	0x012b012b
 8002880:	006b00f0 	.word	0x006b00f0
 8002884:	04160416 	.word	0x04160416
 8002888:	041600fa 	.word	0x041600fa
 800288c:	03420322 	.word	0x03420322
 8002890:	01010376 	.word	0x01010376
 8002894:	03870416 	.word	0x03870416
 8002898:	03aa0416 	.word	0x03aa0416
 800289c:	04160416 	.word	0x04160416
 80028a0:	03c2      	.short	0x03c2
 80028a2:	461d      	mov	r5, r3
 80028a4:	e773      	b.n	800278e <_svfprintf_r+0x76>
 80028a6:	aa1f      	add	r2, sp, #124	; 0x7c
 80028a8:	4651      	mov	r1, sl
 80028aa:	4658      	mov	r0, fp
 80028ac:	f002 fa7e 	bl	8004dac <__ssprint_r>
 80028b0:	2800      	cmp	r0, #0
 80028b2:	f040 8692 	bne.w	80035da <_svfprintf_r+0xec2>
 80028b6:	ac2c      	add	r4, sp, #176	; 0xb0
 80028b8:	e77e      	b.n	80027b8 <_svfprintf_r+0xa0>
 80028ba:	2301      	movs	r3, #1
 80028bc:	222b      	movs	r2, #43	; 0x2b
 80028be:	9905      	ldr	r1, [sp, #20]
 80028c0:	e78b      	b.n	80027da <_svfprintf_r+0xc2>
 80028c2:	460f      	mov	r7, r1
 80028c4:	e7fb      	b.n	80028be <_svfprintf_r+0x1a6>
 80028c6:	b10b      	cbz	r3, 80028cc <_svfprintf_r+0x1b4>
 80028c8:	f88d 205f 	strb.w	r2, [sp, #95]	; 0x5f
 80028cc:	06ae      	lsls	r6, r5, #26
 80028ce:	f140 80aa 	bpl.w	8002a26 <_svfprintf_r+0x30e>
 80028d2:	3707      	adds	r7, #7
 80028d4:	f027 0707 	bic.w	r7, r7, #7
 80028d8:	f107 0308 	add.w	r3, r7, #8
 80028dc:	e9d7 6700 	ldrd	r6, r7, [r7]
 80028e0:	9304      	str	r3, [sp, #16]
 80028e2:	2e00      	cmp	r6, #0
 80028e4:	f177 0300 	sbcs.w	r3, r7, #0
 80028e8:	da06      	bge.n	80028f8 <_svfprintf_r+0x1e0>
 80028ea:	4276      	negs	r6, r6
 80028ec:	f04f 032d 	mov.w	r3, #45	; 0x2d
 80028f0:	eb67 0747 	sbc.w	r7, r7, r7, lsl #1
 80028f4:	f88d 305f 	strb.w	r3, [sp, #95]	; 0x5f
 80028f8:	2301      	movs	r3, #1
 80028fa:	e2ca      	b.n	8002e92 <_svfprintf_r+0x77a>
 80028fc:	b10b      	cbz	r3, 8002902 <_svfprintf_r+0x1ea>
 80028fe:	f88d 205f 	strb.w	r2, [sp, #95]	; 0x5f
 8002902:	4b37      	ldr	r3, [pc, #220]	; (80029e0 <_svfprintf_r+0x2c8>)
 8002904:	9311      	str	r3, [sp, #68]	; 0x44
 8002906:	06ab      	lsls	r3, r5, #26
 8002908:	f140 8339 	bpl.w	8002f7e <_svfprintf_r+0x866>
 800290c:	3707      	adds	r7, #7
 800290e:	f027 0707 	bic.w	r7, r7, #7
 8002912:	f107 0308 	add.w	r3, r7, #8
 8002916:	e9d7 6700 	ldrd	r6, r7, [r7]
 800291a:	9304      	str	r3, [sp, #16]
 800291c:	07e8      	lsls	r0, r5, #31
 800291e:	d50b      	bpl.n	8002938 <_svfprintf_r+0x220>
 8002920:	ea56 0307 	orrs.w	r3, r6, r7
 8002924:	d008      	beq.n	8002938 <_svfprintf_r+0x220>
 8002926:	2330      	movs	r3, #48	; 0x30
 8002928:	f88d 3060 	strb.w	r3, [sp, #96]	; 0x60
 800292c:	f89d 3008 	ldrb.w	r3, [sp, #8]
 8002930:	f88d 3061 	strb.w	r3, [sp, #97]	; 0x61
 8002934:	f045 0502 	orr.w	r5, r5, #2
 8002938:	2302      	movs	r3, #2
 800293a:	e2a7      	b.n	8002e8c <_svfprintf_r+0x774>
 800293c:	2a00      	cmp	r2, #0
 800293e:	d1be      	bne.n	80028be <_svfprintf_r+0x1a6>
 8002940:	2301      	movs	r3, #1
 8002942:	2220      	movs	r2, #32
 8002944:	e7bb      	b.n	80028be <_svfprintf_r+0x1a6>
 8002946:	f045 0501 	orr.w	r5, r5, #1
 800294a:	e7b8      	b.n	80028be <_svfprintf_r+0x1a6>
 800294c:	683e      	ldr	r6, [r7, #0]
 800294e:	960a      	str	r6, [sp, #40]	; 0x28
 8002950:	2e00      	cmp	r6, #0
 8002952:	f107 0104 	add.w	r1, r7, #4
 8002956:	dab4      	bge.n	80028c2 <_svfprintf_r+0x1aa>
 8002958:	4276      	negs	r6, r6
 800295a:	960a      	str	r6, [sp, #40]	; 0x28
 800295c:	460f      	mov	r7, r1
 800295e:	f045 0504 	orr.w	r5, r5, #4
 8002962:	e7ac      	b.n	80028be <_svfprintf_r+0x1a6>
 8002964:	9905      	ldr	r1, [sp, #20]
 8002966:	1c4e      	adds	r6, r1, #1
 8002968:	7809      	ldrb	r1, [r1, #0]
 800296a:	9102      	str	r1, [sp, #8]
 800296c:	292a      	cmp	r1, #42	; 0x2a
 800296e:	d010      	beq.n	8002992 <_svfprintf_r+0x27a>
 8002970:	f04f 0900 	mov.w	r9, #0
 8002974:	9605      	str	r6, [sp, #20]
 8002976:	9902      	ldr	r1, [sp, #8]
 8002978:	3930      	subs	r1, #48	; 0x30
 800297a:	2909      	cmp	r1, #9
 800297c:	f63f af31 	bhi.w	80027e2 <_svfprintf_r+0xca>
 8002980:	fb00 1909 	mla	r9, r0, r9, r1
 8002984:	9905      	ldr	r1, [sp, #20]
 8002986:	460e      	mov	r6, r1
 8002988:	f816 1b01 	ldrb.w	r1, [r6], #1
 800298c:	9102      	str	r1, [sp, #8]
 800298e:	9605      	str	r6, [sp, #20]
 8002990:	e7f1      	b.n	8002976 <_svfprintf_r+0x25e>
 8002992:	6839      	ldr	r1, [r7, #0]
 8002994:	9605      	str	r6, [sp, #20]
 8002996:	ea41 79e1 	orr.w	r9, r1, r1, asr #31
 800299a:	3704      	adds	r7, #4
 800299c:	e78f      	b.n	80028be <_svfprintf_r+0x1a6>
 800299e:	f045 0580 	orr.w	r5, r5, #128	; 0x80
 80029a2:	e78c      	b.n	80028be <_svfprintf_r+0x1a6>
 80029a4:	2100      	movs	r1, #0
 80029a6:	910a      	str	r1, [sp, #40]	; 0x28
 80029a8:	9902      	ldr	r1, [sp, #8]
 80029aa:	9e0a      	ldr	r6, [sp, #40]	; 0x28
 80029ac:	3930      	subs	r1, #48	; 0x30
 80029ae:	fb00 1106 	mla	r1, r0, r6, r1
 80029b2:	910a      	str	r1, [sp, #40]	; 0x28
 80029b4:	9905      	ldr	r1, [sp, #20]
 80029b6:	460e      	mov	r6, r1
 80029b8:	f816 1b01 	ldrb.w	r1, [r6], #1
 80029bc:	9102      	str	r1, [sp, #8]
 80029be:	9902      	ldr	r1, [sp, #8]
 80029c0:	9605      	str	r6, [sp, #20]
 80029c2:	3930      	subs	r1, #48	; 0x30
 80029c4:	2909      	cmp	r1, #9
 80029c6:	d9ef      	bls.n	80029a8 <_svfprintf_r+0x290>
 80029c8:	e70b      	b.n	80027e2 <_svfprintf_r+0xca>
 80029ca:	f045 0508 	orr.w	r5, r5, #8
 80029ce:	e776      	b.n	80028be <_svfprintf_r+0x1a6>
 80029d0:	f045 0540 	orr.w	r5, r5, #64	; 0x40
 80029d4:	e773      	b.n	80028be <_svfprintf_r+0x1a6>
 80029d6:	bf00      	nop
	...
 80029e0:	0800550d 	.word	0x0800550d
 80029e4:	9905      	ldr	r1, [sp, #20]
 80029e6:	7809      	ldrb	r1, [r1, #0]
 80029e8:	296c      	cmp	r1, #108	; 0x6c
 80029ea:	d105      	bne.n	80029f8 <_svfprintf_r+0x2e0>
 80029ec:	9905      	ldr	r1, [sp, #20]
 80029ee:	3101      	adds	r1, #1
 80029f0:	9105      	str	r1, [sp, #20]
 80029f2:	f045 0520 	orr.w	r5, r5, #32
 80029f6:	e762      	b.n	80028be <_svfprintf_r+0x1a6>
 80029f8:	f045 0510 	orr.w	r5, r5, #16
 80029fc:	e75f      	b.n	80028be <_svfprintf_r+0x1a6>
 80029fe:	1d3b      	adds	r3, r7, #4
 8002a00:	9304      	str	r3, [sp, #16]
 8002a02:	2600      	movs	r6, #0
 8002a04:	683b      	ldr	r3, [r7, #0]
 8002a06:	f88d 3088 	strb.w	r3, [sp, #136]	; 0x88
 8002a0a:	f88d 605f 	strb.w	r6, [sp, #95]	; 0x5f
 8002a0e:	f04f 0901 	mov.w	r9, #1
 8002a12:	4637      	mov	r7, r6
 8002a14:	f10d 0888 	add.w	r8, sp, #136	; 0x88
 8002a18:	e11b      	b.n	8002c52 <_svfprintf_r+0x53a>
 8002a1a:	b10b      	cbz	r3, 8002a20 <_svfprintf_r+0x308>
 8002a1c:	f88d 205f 	strb.w	r2, [sp, #95]	; 0x5f
 8002a20:	f045 0510 	orr.w	r5, r5, #16
 8002a24:	e752      	b.n	80028cc <_svfprintf_r+0x1b4>
 8002a26:	f015 0f10 	tst.w	r5, #16
 8002a2a:	f107 0304 	add.w	r3, r7, #4
 8002a2e:	d003      	beq.n	8002a38 <_svfprintf_r+0x320>
 8002a30:	683e      	ldr	r6, [r7, #0]
 8002a32:	9304      	str	r3, [sp, #16]
 8002a34:	17f7      	asrs	r7, r6, #31
 8002a36:	e754      	b.n	80028e2 <_svfprintf_r+0x1ca>
 8002a38:	683e      	ldr	r6, [r7, #0]
 8002a3a:	9304      	str	r3, [sp, #16]
 8002a3c:	f015 0f40 	tst.w	r5, #64	; 0x40
 8002a40:	bf18      	it	ne
 8002a42:	b236      	sxthne	r6, r6
 8002a44:	e7f6      	b.n	8002a34 <_svfprintf_r+0x31c>
 8002a46:	b10b      	cbz	r3, 8002a4c <_svfprintf_r+0x334>
 8002a48:	f88d 205f 	strb.w	r2, [sp, #95]	; 0x5f
 8002a4c:	3707      	adds	r7, #7
 8002a4e:	f027 0707 	bic.w	r7, r7, #7
 8002a52:	f107 0308 	add.w	r3, r7, #8
 8002a56:	9304      	str	r3, [sp, #16]
 8002a58:	ed97 7b00 	vldr	d7, [r7]
 8002a5c:	ed8d 7b06 	vstr	d7, [sp, #24]
 8002a60:	9b06      	ldr	r3, [sp, #24]
 8002a62:	9312      	str	r3, [sp, #72]	; 0x48
 8002a64:	9b07      	ldr	r3, [sp, #28]
 8002a66:	f023 4300 	bic.w	r3, r3, #2147483648	; 0x80000000
 8002a6a:	9313      	str	r3, [sp, #76]	; 0x4c
 8002a6c:	f04f 32ff 	mov.w	r2, #4294967295	; 0xffffffff
 8002a70:	4b4a      	ldr	r3, [pc, #296]	; (8002b9c <_svfprintf_r+0x484>)
 8002a72:	e9dd 0112 	ldrd	r0, r1, [sp, #72]	; 0x48
 8002a76:	f7fe f865 	bl	8000b44 <__aeabi_dcmpun>
 8002a7a:	2800      	cmp	r0, #0
 8002a7c:	f040 85d5 	bne.w	800362a <_svfprintf_r+0xf12>
 8002a80:	f04f 32ff 	mov.w	r2, #4294967295	; 0xffffffff
 8002a84:	4b45      	ldr	r3, [pc, #276]	; (8002b9c <_svfprintf_r+0x484>)
 8002a86:	e9dd 0112 	ldrd	r0, r1, [sp, #72]	; 0x48
 8002a8a:	f7fe f83d 	bl	8000b08 <__aeabi_dcmple>
 8002a8e:	2800      	cmp	r0, #0
 8002a90:	f040 85cb 	bne.w	800362a <_svfprintf_r+0xf12>
 8002a94:	2200      	movs	r2, #0
 8002a96:	2300      	movs	r3, #0
 8002a98:	e9dd 0106 	ldrd	r0, r1, [sp, #24]
 8002a9c:	f7fe f82a 	bl	8000af4 <__aeabi_dcmplt>
 8002aa0:	b110      	cbz	r0, 8002aa8 <_svfprintf_r+0x390>
 8002aa2:	232d      	movs	r3, #45	; 0x2d
 8002aa4:	f88d 305f 	strb.w	r3, [sp, #95]	; 0x5f
 8002aa8:	4b3d      	ldr	r3, [pc, #244]	; (8002ba0 <_svfprintf_r+0x488>)
 8002aaa:	4a3e      	ldr	r2, [pc, #248]	; (8002ba4 <_svfprintf_r+0x48c>)
 8002aac:	9902      	ldr	r1, [sp, #8]
 8002aae:	f025 0580 	bic.w	r5, r5, #128	; 0x80
 8002ab2:	2947      	cmp	r1, #71	; 0x47
 8002ab4:	bfcc      	ite	gt
 8002ab6:	4690      	movgt	r8, r2
 8002ab8:	4698      	movle	r8, r3
 8002aba:	f04f 0903 	mov.w	r9, #3
 8002abe:	2600      	movs	r6, #0
 8002ac0:	4637      	mov	r7, r6
 8002ac2:	e0c6      	b.n	8002c52 <_svfprintf_r+0x53a>
 8002ac4:	f1b9 3fff 	cmp.w	r9, #4294967295	; 0xffffffff
 8002ac8:	d022      	beq.n	8002b10 <_svfprintf_r+0x3f8>
 8002aca:	9b02      	ldr	r3, [sp, #8]
 8002acc:	f023 0320 	bic.w	r3, r3, #32
 8002ad0:	2b47      	cmp	r3, #71	; 0x47
 8002ad2:	d104      	bne.n	8002ade <_svfprintf_r+0x3c6>
 8002ad4:	f1b9 0f00 	cmp.w	r9, #0
 8002ad8:	bf08      	it	eq
 8002ada:	f04f 0901 	moveq.w	r9, #1
 8002ade:	f445 7380 	orr.w	r3, r5, #256	; 0x100
 8002ae2:	930c      	str	r3, [sp, #48]	; 0x30
 8002ae4:	9b07      	ldr	r3, [sp, #28]
 8002ae6:	2b00      	cmp	r3, #0
 8002ae8:	da15      	bge.n	8002b16 <_svfprintf_r+0x3fe>
 8002aea:	9b06      	ldr	r3, [sp, #24]
 8002aec:	930e      	str	r3, [sp, #56]	; 0x38
 8002aee:	9b07      	ldr	r3, [sp, #28]
 8002af0:	f103 4300 	add.w	r3, r3, #2147483648	; 0x80000000
 8002af4:	930f      	str	r3, [sp, #60]	; 0x3c
 8002af6:	232d      	movs	r3, #45	; 0x2d
 8002af8:	930b      	str	r3, [sp, #44]	; 0x2c
 8002afa:	9b02      	ldr	r3, [sp, #8]
 8002afc:	f023 0720 	bic.w	r7, r3, #32
 8002b00:	2f46      	cmp	r7, #70	; 0x46
 8002b02:	d00e      	beq.n	8002b22 <_svfprintf_r+0x40a>
 8002b04:	2f45      	cmp	r7, #69	; 0x45
 8002b06:	d146      	bne.n	8002b96 <_svfprintf_r+0x47e>
 8002b08:	f109 0601 	add.w	r6, r9, #1
 8002b0c:	2102      	movs	r1, #2
 8002b0e:	e00a      	b.n	8002b26 <_svfprintf_r+0x40e>
 8002b10:	f04f 0906 	mov.w	r9, #6
 8002b14:	e7e3      	b.n	8002ade <_svfprintf_r+0x3c6>
 8002b16:	ed9d 7b06 	vldr	d7, [sp, #24]
 8002b1a:	2300      	movs	r3, #0
 8002b1c:	ed8d 7b0e 	vstr	d7, [sp, #56]	; 0x38
 8002b20:	e7ea      	b.n	8002af8 <_svfprintf_r+0x3e0>
 8002b22:	464e      	mov	r6, r9
 8002b24:	2103      	movs	r1, #3
 8002b26:	ab1d      	add	r3, sp, #116	; 0x74
 8002b28:	9301      	str	r3, [sp, #4]
 8002b2a:	ab1a      	add	r3, sp, #104	; 0x68
 8002b2c:	9300      	str	r3, [sp, #0]
 8002b2e:	4632      	mov	r2, r6
 8002b30:	ab19      	add	r3, sp, #100	; 0x64
 8002b32:	ed9d 0b0e 	vldr	d0, [sp, #56]	; 0x38
 8002b36:	4658      	mov	r0, fp
 8002b38:	f000 fe4e 	bl	80037d8 <_dtoa_r>
 8002b3c:	2f47      	cmp	r7, #71	; 0x47
 8002b3e:	4680      	mov	r8, r0
 8002b40:	d102      	bne.n	8002b48 <_svfprintf_r+0x430>
 8002b42:	07e8      	lsls	r0, r5, #31
 8002b44:	f140 857e 	bpl.w	8003644 <_svfprintf_r+0xf2c>
 8002b48:	eb08 0306 	add.w	r3, r8, r6
 8002b4c:	2f46      	cmp	r7, #70	; 0x46
 8002b4e:	9303      	str	r3, [sp, #12]
 8002b50:	d111      	bne.n	8002b76 <_svfprintf_r+0x45e>
 8002b52:	f898 3000 	ldrb.w	r3, [r8]
 8002b56:	2b30      	cmp	r3, #48	; 0x30
 8002b58:	d109      	bne.n	8002b6e <_svfprintf_r+0x456>
 8002b5a:	2200      	movs	r2, #0
 8002b5c:	2300      	movs	r3, #0
 8002b5e:	e9dd 010e 	ldrd	r0, r1, [sp, #56]	; 0x38
 8002b62:	f7fd ffbd 	bl	8000ae0 <__aeabi_dcmpeq>
 8002b66:	b910      	cbnz	r0, 8002b6e <_svfprintf_r+0x456>
 8002b68:	f1c6 0601 	rsb	r6, r6, #1
 8002b6c:	9619      	str	r6, [sp, #100]	; 0x64
 8002b6e:	9a03      	ldr	r2, [sp, #12]
 8002b70:	9b19      	ldr	r3, [sp, #100]	; 0x64
 8002b72:	441a      	add	r2, r3
 8002b74:	9203      	str	r2, [sp, #12]
 8002b76:	2200      	movs	r2, #0
 8002b78:	2300      	movs	r3, #0
 8002b7a:	e9dd 010e 	ldrd	r0, r1, [sp, #56]	; 0x38
 8002b7e:	f7fd ffaf 	bl	8000ae0 <__aeabi_dcmpeq>
 8002b82:	b988      	cbnz	r0, 8002ba8 <_svfprintf_r+0x490>
 8002b84:	2230      	movs	r2, #48	; 0x30
 8002b86:	9b1d      	ldr	r3, [sp, #116]	; 0x74
 8002b88:	9903      	ldr	r1, [sp, #12]
 8002b8a:	4299      	cmp	r1, r3
 8002b8c:	d90e      	bls.n	8002bac <_svfprintf_r+0x494>
 8002b8e:	1c59      	adds	r1, r3, #1
 8002b90:	911d      	str	r1, [sp, #116]	; 0x74
 8002b92:	701a      	strb	r2, [r3, #0]
 8002b94:	e7f7      	b.n	8002b86 <_svfprintf_r+0x46e>
 8002b96:	464e      	mov	r6, r9
 8002b98:	e7b8      	b.n	8002b0c <_svfprintf_r+0x3f4>
 8002b9a:	bf00      	nop
 8002b9c:	7fefffff 	.word	0x7fefffff
 8002ba0:	080054fd 	.word	0x080054fd
 8002ba4:	08005501 	.word	0x08005501
 8002ba8:	9b03      	ldr	r3, [sp, #12]
 8002baa:	931d      	str	r3, [sp, #116]	; 0x74
 8002bac:	9b1d      	ldr	r3, [sp, #116]	; 0x74
 8002bae:	2f47      	cmp	r7, #71	; 0x47
 8002bb0:	eba3 0308 	sub.w	r3, r3, r8
 8002bb4:	9303      	str	r3, [sp, #12]
 8002bb6:	f040 80fa 	bne.w	8002dae <_svfprintf_r+0x696>
 8002bba:	9b19      	ldr	r3, [sp, #100]	; 0x64
 8002bbc:	1cd9      	adds	r1, r3, #3
 8002bbe:	db02      	blt.n	8002bc6 <_svfprintf_r+0x4ae>
 8002bc0:	4599      	cmp	r9, r3
 8002bc2:	f280 8120 	bge.w	8002e06 <_svfprintf_r+0x6ee>
 8002bc6:	9b02      	ldr	r3, [sp, #8]
 8002bc8:	3b02      	subs	r3, #2
 8002bca:	9302      	str	r3, [sp, #8]
 8002bcc:	9a19      	ldr	r2, [sp, #100]	; 0x64
 8002bce:	f89d 1008 	ldrb.w	r1, [sp, #8]
 8002bd2:	f88d 106c 	strb.w	r1, [sp, #108]	; 0x6c
 8002bd6:	1e53      	subs	r3, r2, #1
 8002bd8:	2b00      	cmp	r3, #0
 8002bda:	9319      	str	r3, [sp, #100]	; 0x64
 8002bdc:	bfb6      	itet	lt
 8002bde:	f1c2 0301 	rsblt	r3, r2, #1
 8002be2:	222b      	movge	r2, #43	; 0x2b
 8002be4:	222d      	movlt	r2, #45	; 0x2d
 8002be6:	2b09      	cmp	r3, #9
 8002be8:	f88d 206d 	strb.w	r2, [sp, #109]	; 0x6d
 8002bec:	f340 80fb 	ble.w	8002de6 <_svfprintf_r+0x6ce>
 8002bf0:	f10d 027b 	add.w	r2, sp, #123	; 0x7b
 8002bf4:	260a      	movs	r6, #10
 8002bf6:	fb93 f0f6 	sdiv	r0, r3, r6
 8002bfa:	fb06 3310 	mls	r3, r6, r0, r3
 8002bfe:	3330      	adds	r3, #48	; 0x30
 8002c00:	2809      	cmp	r0, #9
 8002c02:	f802 3c01 	strb.w	r3, [r2, #-1]
 8002c06:	f102 31ff 	add.w	r1, r2, #4294967295	; 0xffffffff
 8002c0a:	4603      	mov	r3, r0
 8002c0c:	f300 80e4 	bgt.w	8002dd8 <_svfprintf_r+0x6c0>
 8002c10:	3330      	adds	r3, #48	; 0x30
 8002c12:	f801 3c01 	strb.w	r3, [r1, #-1]
 8002c16:	3a02      	subs	r2, #2
 8002c18:	f10d 036e 	add.w	r3, sp, #110	; 0x6e
 8002c1c:	f10d 007b 	add.w	r0, sp, #123	; 0x7b
 8002c20:	4282      	cmp	r2, r0
 8002c22:	4619      	mov	r1, r3
 8002c24:	f0c0 80da 	bcc.w	8002ddc <_svfprintf_r+0x6c4>
 8002c28:	9a03      	ldr	r2, [sp, #12]
 8002c2a:	ab1b      	add	r3, sp, #108	; 0x6c
 8002c2c:	1acb      	subs	r3, r1, r3
 8002c2e:	2a01      	cmp	r2, #1
 8002c30:	9310      	str	r3, [sp, #64]	; 0x40
 8002c32:	eb03 0902 	add.w	r9, r3, r2
 8002c36:	dc02      	bgt.n	8002c3e <_svfprintf_r+0x526>
 8002c38:	f015 0701 	ands.w	r7, r5, #1
 8002c3c:	d002      	beq.n	8002c44 <_svfprintf_r+0x52c>
 8002c3e:	9b08      	ldr	r3, [sp, #32]
 8002c40:	2700      	movs	r7, #0
 8002c42:	4499      	add	r9, r3
 8002c44:	9b0b      	ldr	r3, [sp, #44]	; 0x2c
 8002c46:	b113      	cbz	r3, 8002c4e <_svfprintf_r+0x536>
 8002c48:	232d      	movs	r3, #45	; 0x2d
 8002c4a:	f88d 305f 	strb.w	r3, [sp, #95]	; 0x5f
 8002c4e:	9d0c      	ldr	r5, [sp, #48]	; 0x30
 8002c50:	2600      	movs	r6, #0
 8002c52:	454e      	cmp	r6, r9
 8002c54:	4633      	mov	r3, r6
 8002c56:	bfb8      	it	lt
 8002c58:	464b      	movlt	r3, r9
 8002c5a:	930b      	str	r3, [sp, #44]	; 0x2c
 8002c5c:	f89d 305f 	ldrb.w	r3, [sp, #95]	; 0x5f
 8002c60:	b113      	cbz	r3, 8002c68 <_svfprintf_r+0x550>
 8002c62:	9b0b      	ldr	r3, [sp, #44]	; 0x2c
 8002c64:	3301      	adds	r3, #1
 8002c66:	930b      	str	r3, [sp, #44]	; 0x2c
 8002c68:	f015 0302 	ands.w	r3, r5, #2
 8002c6c:	9314      	str	r3, [sp, #80]	; 0x50
 8002c6e:	bf1e      	ittt	ne
 8002c70:	9b0b      	ldrne	r3, [sp, #44]	; 0x2c
 8002c72:	3302      	addne	r3, #2
 8002c74:	930b      	strne	r3, [sp, #44]	; 0x2c
 8002c76:	f015 0384 	ands.w	r3, r5, #132	; 0x84
 8002c7a:	9315      	str	r3, [sp, #84]	; 0x54
 8002c7c:	d118      	bne.n	8002cb0 <_svfprintf_r+0x598>
 8002c7e:	9b0a      	ldr	r3, [sp, #40]	; 0x28
 8002c80:	9a0b      	ldr	r2, [sp, #44]	; 0x2c
 8002c82:	1a9b      	subs	r3, r3, r2
 8002c84:	2b00      	cmp	r3, #0
 8002c86:	930c      	str	r3, [sp, #48]	; 0x30
 8002c88:	dd12      	ble.n	8002cb0 <_svfprintf_r+0x598>
 8002c8a:	9b0c      	ldr	r3, [sp, #48]	; 0x30
 8002c8c:	2b10      	cmp	r3, #16
 8002c8e:	4ba9      	ldr	r3, [pc, #676]	; (8002f34 <_svfprintf_r+0x81c>)
 8002c90:	6023      	str	r3, [r4, #0]
 8002c92:	f300 81d5 	bgt.w	8003040 <_svfprintf_r+0x928>
 8002c96:	9b0c      	ldr	r3, [sp, #48]	; 0x30
 8002c98:	6063      	str	r3, [r4, #4]
 8002c9a:	9a0c      	ldr	r2, [sp, #48]	; 0x30
 8002c9c:	9b21      	ldr	r3, [sp, #132]	; 0x84
 8002c9e:	4413      	add	r3, r2
 8002ca0:	9321      	str	r3, [sp, #132]	; 0x84
 8002ca2:	9b20      	ldr	r3, [sp, #128]	; 0x80
 8002ca4:	3301      	adds	r3, #1
 8002ca6:	2b07      	cmp	r3, #7
 8002ca8:	9320      	str	r3, [sp, #128]	; 0x80
 8002caa:	f300 81e2 	bgt.w	8003072 <_svfprintf_r+0x95a>
 8002cae:	3408      	adds	r4, #8
 8002cb0:	f89d 305f 	ldrb.w	r3, [sp, #95]	; 0x5f
 8002cb4:	b173      	cbz	r3, 8002cd4 <_svfprintf_r+0x5bc>
 8002cb6:	f10d 035f 	add.w	r3, sp, #95	; 0x5f
 8002cba:	6023      	str	r3, [r4, #0]
 8002cbc:	2301      	movs	r3, #1
 8002cbe:	6063      	str	r3, [r4, #4]
 8002cc0:	9b21      	ldr	r3, [sp, #132]	; 0x84
 8002cc2:	3301      	adds	r3, #1
 8002cc4:	9321      	str	r3, [sp, #132]	; 0x84
 8002cc6:	9b20      	ldr	r3, [sp, #128]	; 0x80
 8002cc8:	3301      	adds	r3, #1
 8002cca:	2b07      	cmp	r3, #7
 8002ccc:	9320      	str	r3, [sp, #128]	; 0x80
 8002cce:	f300 81da 	bgt.w	8003086 <_svfprintf_r+0x96e>
 8002cd2:	3408      	adds	r4, #8
 8002cd4:	9b14      	ldr	r3, [sp, #80]	; 0x50
 8002cd6:	b16b      	cbz	r3, 8002cf4 <_svfprintf_r+0x5dc>
 8002cd8:	ab18      	add	r3, sp, #96	; 0x60
 8002cda:	6023      	str	r3, [r4, #0]
 8002cdc:	2302      	movs	r3, #2
 8002cde:	6063      	str	r3, [r4, #4]
 8002ce0:	9b21      	ldr	r3, [sp, #132]	; 0x84
 8002ce2:	3302      	adds	r3, #2
 8002ce4:	9321      	str	r3, [sp, #132]	; 0x84
 8002ce6:	9b20      	ldr	r3, [sp, #128]	; 0x80
 8002ce8:	3301      	adds	r3, #1
 8002cea:	2b07      	cmp	r3, #7
 8002cec:	9320      	str	r3, [sp, #128]	; 0x80
 8002cee:	f300 81d4 	bgt.w	800309a <_svfprintf_r+0x982>
 8002cf2:	3408      	adds	r4, #8
 8002cf4:	9b15      	ldr	r3, [sp, #84]	; 0x54
 8002cf6:	2b80      	cmp	r3, #128	; 0x80
 8002cf8:	d114      	bne.n	8002d24 <_svfprintf_r+0x60c>
 8002cfa:	9b0a      	ldr	r3, [sp, #40]	; 0x28
 8002cfc:	9a0b      	ldr	r2, [sp, #44]	; 0x2c
 8002cfe:	1a9b      	subs	r3, r3, r2
 8002d00:	2b00      	cmp	r3, #0
 8002d02:	dd0f      	ble.n	8002d24 <_svfprintf_r+0x60c>
 8002d04:	4a8c      	ldr	r2, [pc, #560]	; (8002f38 <_svfprintf_r+0x820>)
 8002d06:	6022      	str	r2, [r4, #0]
 8002d08:	2b10      	cmp	r3, #16
 8002d0a:	f300 81d0 	bgt.w	80030ae <_svfprintf_r+0x996>
 8002d0e:	9a21      	ldr	r2, [sp, #132]	; 0x84
 8002d10:	6063      	str	r3, [r4, #4]
 8002d12:	4413      	add	r3, r2
 8002d14:	9321      	str	r3, [sp, #132]	; 0x84
 8002d16:	9b20      	ldr	r3, [sp, #128]	; 0x80
 8002d18:	3301      	adds	r3, #1
 8002d1a:	2b07      	cmp	r3, #7
 8002d1c:	9320      	str	r3, [sp, #128]	; 0x80
 8002d1e:	f300 81df 	bgt.w	80030e0 <_svfprintf_r+0x9c8>
 8002d22:	3408      	adds	r4, #8
 8002d24:	eba6 0609 	sub.w	r6, r6, r9
 8002d28:	2e00      	cmp	r6, #0
 8002d2a:	dd0f      	ble.n	8002d4c <_svfprintf_r+0x634>
 8002d2c:	4b82      	ldr	r3, [pc, #520]	; (8002f38 <_svfprintf_r+0x820>)
 8002d2e:	6023      	str	r3, [r4, #0]
 8002d30:	2e10      	cmp	r6, #16
 8002d32:	f300 81df 	bgt.w	80030f4 <_svfprintf_r+0x9dc>
 8002d36:	9b20      	ldr	r3, [sp, #128]	; 0x80
 8002d38:	9821      	ldr	r0, [sp, #132]	; 0x84
 8002d3a:	6066      	str	r6, [r4, #4]
 8002d3c:	3301      	adds	r3, #1
 8002d3e:	4406      	add	r6, r0
 8002d40:	2b07      	cmp	r3, #7
 8002d42:	9621      	str	r6, [sp, #132]	; 0x84
 8002d44:	9320      	str	r3, [sp, #128]	; 0x80
 8002d46:	f300 81ec 	bgt.w	8003122 <_svfprintf_r+0xa0a>
 8002d4a:	3408      	adds	r4, #8
 8002d4c:	05eb      	lsls	r3, r5, #23
 8002d4e:	f100 81f2 	bmi.w	8003136 <_svfprintf_r+0xa1e>
 8002d52:	9b21      	ldr	r3, [sp, #132]	; 0x84
 8002d54:	e884 0300 	stmia.w	r4, {r8, r9}
 8002d58:	444b      	add	r3, r9
 8002d5a:	9321      	str	r3, [sp, #132]	; 0x84
 8002d5c:	9b20      	ldr	r3, [sp, #128]	; 0x80
 8002d5e:	3301      	adds	r3, #1
 8002d60:	2b07      	cmp	r3, #7
 8002d62:	9320      	str	r3, [sp, #128]	; 0x80
 8002d64:	f340 8419 	ble.w	800359a <_svfprintf_r+0xe82>
 8002d68:	aa1f      	add	r2, sp, #124	; 0x7c
 8002d6a:	4651      	mov	r1, sl
 8002d6c:	4658      	mov	r0, fp
 8002d6e:	f002 f81d 	bl	8004dac <__ssprint_r>
 8002d72:	2800      	cmp	r0, #0
 8002d74:	f040 8431 	bne.w	80035da <_svfprintf_r+0xec2>
 8002d78:	ac2c      	add	r4, sp, #176	; 0xb0
 8002d7a:	076b      	lsls	r3, r5, #29
 8002d7c:	f100 8410 	bmi.w	80035a0 <_svfprintf_r+0xe88>
 8002d80:	9b09      	ldr	r3, [sp, #36]	; 0x24
 8002d82:	9a0a      	ldr	r2, [sp, #40]	; 0x28
 8002d84:	990b      	ldr	r1, [sp, #44]	; 0x2c
 8002d86:	428a      	cmp	r2, r1
 8002d88:	bfac      	ite	ge
 8002d8a:	189b      	addge	r3, r3, r2
 8002d8c:	185b      	addlt	r3, r3, r1
 8002d8e:	9309      	str	r3, [sp, #36]	; 0x24
 8002d90:	9b21      	ldr	r3, [sp, #132]	; 0x84
 8002d92:	b13b      	cbz	r3, 8002da4 <_svfprintf_r+0x68c>
 8002d94:	aa1f      	add	r2, sp, #124	; 0x7c
 8002d96:	4651      	mov	r1, sl
 8002d98:	4658      	mov	r0, fp
 8002d9a:	f002 f807 	bl	8004dac <__ssprint_r>
 8002d9e:	2800      	cmp	r0, #0
 8002da0:	f040 841b 	bne.w	80035da <_svfprintf_r+0xec2>
 8002da4:	2300      	movs	r3, #0
 8002da6:	9320      	str	r3, [sp, #128]	; 0x80
 8002da8:	9f04      	ldr	r7, [sp, #16]
 8002daa:	ac2c      	add	r4, sp, #176	; 0xb0
 8002dac:	e4ee      	b.n	800278c <_svfprintf_r+0x74>
 8002dae:	9b02      	ldr	r3, [sp, #8]
 8002db0:	2b65      	cmp	r3, #101	; 0x65
 8002db2:	f77f af0b 	ble.w	8002bcc <_svfprintf_r+0x4b4>
 8002db6:	9b02      	ldr	r3, [sp, #8]
 8002db8:	2b66      	cmp	r3, #102	; 0x66
 8002dba:	d124      	bne.n	8002e06 <_svfprintf_r+0x6ee>
 8002dbc:	9b19      	ldr	r3, [sp, #100]	; 0x64
 8002dbe:	2b00      	cmp	r3, #0
 8002dc0:	dd19      	ble.n	8002df6 <_svfprintf_r+0x6de>
 8002dc2:	f1b9 0f00 	cmp.w	r9, #0
 8002dc6:	d101      	bne.n	8002dcc <_svfprintf_r+0x6b4>
 8002dc8:	07ea      	lsls	r2, r5, #31
 8002dca:	d502      	bpl.n	8002dd2 <_svfprintf_r+0x6ba>
 8002dcc:	9a08      	ldr	r2, [sp, #32]
 8002dce:	4413      	add	r3, r2
 8002dd0:	444b      	add	r3, r9
 8002dd2:	9f19      	ldr	r7, [sp, #100]	; 0x64
 8002dd4:	4699      	mov	r9, r3
 8002dd6:	e735      	b.n	8002c44 <_svfprintf_r+0x52c>
 8002dd8:	460a      	mov	r2, r1
 8002dda:	e70c      	b.n	8002bf6 <_svfprintf_r+0x4de>
 8002ddc:	f812 1b01 	ldrb.w	r1, [r2], #1
 8002de0:	f803 1b01 	strb.w	r1, [r3], #1
 8002de4:	e71c      	b.n	8002c20 <_svfprintf_r+0x508>
 8002de6:	2230      	movs	r2, #48	; 0x30
 8002de8:	4413      	add	r3, r2
 8002dea:	f88d 206e 	strb.w	r2, [sp, #110]	; 0x6e
 8002dee:	f88d 306f 	strb.w	r3, [sp, #111]	; 0x6f
 8002df2:	a91c      	add	r1, sp, #112	; 0x70
 8002df4:	e718      	b.n	8002c28 <_svfprintf_r+0x510>
 8002df6:	f1b9 0f00 	cmp.w	r9, #0
 8002dfa:	d101      	bne.n	8002e00 <_svfprintf_r+0x6e8>
 8002dfc:	07eb      	lsls	r3, r5, #31
 8002dfe:	d515      	bpl.n	8002e2c <_svfprintf_r+0x714>
 8002e00:	9b08      	ldr	r3, [sp, #32]
 8002e02:	3301      	adds	r3, #1
 8002e04:	e7e4      	b.n	8002dd0 <_svfprintf_r+0x6b8>
 8002e06:	9a19      	ldr	r2, [sp, #100]	; 0x64
 8002e08:	9b03      	ldr	r3, [sp, #12]
 8002e0a:	429a      	cmp	r2, r3
 8002e0c:	db06      	blt.n	8002e1c <_svfprintf_r+0x704>
 8002e0e:	07ef      	lsls	r7, r5, #31
 8002e10:	d50e      	bpl.n	8002e30 <_svfprintf_r+0x718>
 8002e12:	9b08      	ldr	r3, [sp, #32]
 8002e14:	4413      	add	r3, r2
 8002e16:	2267      	movs	r2, #103	; 0x67
 8002e18:	9202      	str	r2, [sp, #8]
 8002e1a:	e7da      	b.n	8002dd2 <_svfprintf_r+0x6ba>
 8002e1c:	9b03      	ldr	r3, [sp, #12]
 8002e1e:	9908      	ldr	r1, [sp, #32]
 8002e20:	2a00      	cmp	r2, #0
 8002e22:	440b      	add	r3, r1
 8002e24:	dcf7      	bgt.n	8002e16 <_svfprintf_r+0x6fe>
 8002e26:	f1c2 0201 	rsb	r2, r2, #1
 8002e2a:	e7f3      	b.n	8002e14 <_svfprintf_r+0x6fc>
 8002e2c:	2301      	movs	r3, #1
 8002e2e:	e7d0      	b.n	8002dd2 <_svfprintf_r+0x6ba>
 8002e30:	4613      	mov	r3, r2
 8002e32:	e7f0      	b.n	8002e16 <_svfprintf_r+0x6fe>
 8002e34:	b10b      	cbz	r3, 8002e3a <_svfprintf_r+0x722>
 8002e36:	f88d 205f 	strb.w	r2, [sp, #95]	; 0x5f
 8002e3a:	f015 0f20 	tst.w	r5, #32
 8002e3e:	f107 0304 	add.w	r3, r7, #4
 8002e42:	d008      	beq.n	8002e56 <_svfprintf_r+0x73e>
 8002e44:	9909      	ldr	r1, [sp, #36]	; 0x24
 8002e46:	683a      	ldr	r2, [r7, #0]
 8002e48:	17ce      	asrs	r6, r1, #31
 8002e4a:	4608      	mov	r0, r1
 8002e4c:	4631      	mov	r1, r6
 8002e4e:	e9c2 0100 	strd	r0, r1, [r2]
 8002e52:	461f      	mov	r7, r3
 8002e54:	e49a      	b.n	800278c <_svfprintf_r+0x74>
 8002e56:	06ee      	lsls	r6, r5, #27
 8002e58:	d503      	bpl.n	8002e62 <_svfprintf_r+0x74a>
 8002e5a:	683a      	ldr	r2, [r7, #0]
 8002e5c:	9909      	ldr	r1, [sp, #36]	; 0x24
 8002e5e:	6011      	str	r1, [r2, #0]
 8002e60:	e7f7      	b.n	8002e52 <_svfprintf_r+0x73a>
 8002e62:	0668      	lsls	r0, r5, #25
 8002e64:	d5f9      	bpl.n	8002e5a <_svfprintf_r+0x742>
 8002e66:	683a      	ldr	r2, [r7, #0]
 8002e68:	f8bd 1024 	ldrh.w	r1, [sp, #36]	; 0x24
 8002e6c:	8011      	strh	r1, [r2, #0]
 8002e6e:	e7f0      	b.n	8002e52 <_svfprintf_r+0x73a>
 8002e70:	f045 0510 	orr.w	r5, r5, #16
 8002e74:	f015 0320 	ands.w	r3, r5, #32
 8002e78:	d022      	beq.n	8002ec0 <_svfprintf_r+0x7a8>
 8002e7a:	3707      	adds	r7, #7
 8002e7c:	f027 0707 	bic.w	r7, r7, #7
 8002e80:	f107 0308 	add.w	r3, r7, #8
 8002e84:	e9d7 6700 	ldrd	r6, r7, [r7]
 8002e88:	9304      	str	r3, [sp, #16]
 8002e8a:	2300      	movs	r3, #0
 8002e8c:	2200      	movs	r2, #0
 8002e8e:	f88d 205f 	strb.w	r2, [sp, #95]	; 0x5f
 8002e92:	f1b9 3fff 	cmp.w	r9, #4294967295	; 0xffffffff
 8002e96:	f000 83db 	beq.w	8003650 <_svfprintf_r+0xf38>
 8002e9a:	f025 0280 	bic.w	r2, r5, #128	; 0x80
 8002e9e:	920b      	str	r2, [sp, #44]	; 0x2c
 8002ea0:	ea56 0207 	orrs.w	r2, r6, r7
 8002ea4:	f040 83d9 	bne.w	800365a <_svfprintf_r+0xf42>
 8002ea8:	f1b9 0f00 	cmp.w	r9, #0
 8002eac:	f000 80aa 	beq.w	8003004 <_svfprintf_r+0x8ec>
 8002eb0:	2b01      	cmp	r3, #1
 8002eb2:	d076      	beq.n	8002fa2 <_svfprintf_r+0x88a>
 8002eb4:	2b02      	cmp	r3, #2
 8002eb6:	f000 8091 	beq.w	8002fdc <_svfprintf_r+0x8c4>
 8002eba:	2600      	movs	r6, #0
 8002ebc:	2700      	movs	r7, #0
 8002ebe:	e3d2      	b.n	8003666 <_svfprintf_r+0xf4e>
 8002ec0:	1d3a      	adds	r2, r7, #4
 8002ec2:	f015 0110 	ands.w	r1, r5, #16
 8002ec6:	9204      	str	r2, [sp, #16]
 8002ec8:	d002      	beq.n	8002ed0 <_svfprintf_r+0x7b8>
 8002eca:	683e      	ldr	r6, [r7, #0]
 8002ecc:	2700      	movs	r7, #0
 8002ece:	e7dd      	b.n	8002e8c <_svfprintf_r+0x774>
 8002ed0:	f015 0340 	ands.w	r3, r5, #64	; 0x40
 8002ed4:	d0f9      	beq.n	8002eca <_svfprintf_r+0x7b2>
 8002ed6:	883e      	ldrh	r6, [r7, #0]
 8002ed8:	2700      	movs	r7, #0
 8002eda:	e7d6      	b.n	8002e8a <_svfprintf_r+0x772>
 8002edc:	1d3b      	adds	r3, r7, #4
 8002ede:	9304      	str	r3, [sp, #16]
 8002ee0:	2330      	movs	r3, #48	; 0x30
 8002ee2:	2278      	movs	r2, #120	; 0x78
 8002ee4:	f88d 3060 	strb.w	r3, [sp, #96]	; 0x60
 8002ee8:	4b14      	ldr	r3, [pc, #80]	; (8002f3c <_svfprintf_r+0x824>)
 8002eea:	683e      	ldr	r6, [r7, #0]
 8002eec:	9311      	str	r3, [sp, #68]	; 0x44
 8002eee:	2700      	movs	r7, #0
 8002ef0:	f045 0502 	orr.w	r5, r5, #2
 8002ef4:	f88d 2061 	strb.w	r2, [sp, #97]	; 0x61
 8002ef8:	2302      	movs	r3, #2
 8002efa:	9202      	str	r2, [sp, #8]
 8002efc:	e7c6      	b.n	8002e8c <_svfprintf_r+0x774>
 8002efe:	1d3b      	adds	r3, r7, #4
 8002f00:	2600      	movs	r6, #0
 8002f02:	f1b9 3fff 	cmp.w	r9, #4294967295	; 0xffffffff
 8002f06:	9304      	str	r3, [sp, #16]
 8002f08:	f8d7 8000 	ldr.w	r8, [r7]
 8002f0c:	f88d 605f 	strb.w	r6, [sp, #95]	; 0x5f
 8002f10:	d00a      	beq.n	8002f28 <_svfprintf_r+0x810>
 8002f12:	464a      	mov	r2, r9
 8002f14:	4631      	mov	r1, r6
 8002f16:	4640      	mov	r0, r8
 8002f18:	f7fd f96a 	bl	80001f0 <memchr>
 8002f1c:	2800      	cmp	r0, #0
 8002f1e:	f000 808d 	beq.w	800303c <_svfprintf_r+0x924>
 8002f22:	eba0 0908 	sub.w	r9, r0, r8
 8002f26:	e5cb      	b.n	8002ac0 <_svfprintf_r+0x3a8>
 8002f28:	4640      	mov	r0, r8
 8002f2a:	f7fd f9b1 	bl	8000290 <strlen>
 8002f2e:	4681      	mov	r9, r0
 8002f30:	e5c6      	b.n	8002ac0 <_svfprintf_r+0x3a8>
 8002f32:	bf00      	nop
 8002f34:	08005531 	.word	0x08005531
 8002f38:	08005541 	.word	0x08005541
 8002f3c:	0800551e 	.word	0x0800551e
 8002f40:	f045 0510 	orr.w	r5, r5, #16
 8002f44:	06a9      	lsls	r1, r5, #26
 8002f46:	d509      	bpl.n	8002f5c <_svfprintf_r+0x844>
 8002f48:	3707      	adds	r7, #7
 8002f4a:	f027 0707 	bic.w	r7, r7, #7
 8002f4e:	f107 0308 	add.w	r3, r7, #8
 8002f52:	e9d7 6700 	ldrd	r6, r7, [r7]
 8002f56:	9304      	str	r3, [sp, #16]
 8002f58:	2301      	movs	r3, #1
 8002f5a:	e797      	b.n	8002e8c <_svfprintf_r+0x774>
 8002f5c:	1d3b      	adds	r3, r7, #4
 8002f5e:	f015 0f10 	tst.w	r5, #16
 8002f62:	9304      	str	r3, [sp, #16]
 8002f64:	d001      	beq.n	8002f6a <_svfprintf_r+0x852>
 8002f66:	683e      	ldr	r6, [r7, #0]
 8002f68:	e002      	b.n	8002f70 <_svfprintf_r+0x858>
 8002f6a:	066a      	lsls	r2, r5, #25
 8002f6c:	d5fb      	bpl.n	8002f66 <_svfprintf_r+0x84e>
 8002f6e:	883e      	ldrh	r6, [r7, #0]
 8002f70:	2700      	movs	r7, #0
 8002f72:	e7f1      	b.n	8002f58 <_svfprintf_r+0x840>
 8002f74:	b10b      	cbz	r3, 8002f7a <_svfprintf_r+0x862>
 8002f76:	f88d 205f 	strb.w	r2, [sp, #95]	; 0x5f
 8002f7a:	4ba3      	ldr	r3, [pc, #652]	; (8003208 <_svfprintf_r+0xaf0>)
 8002f7c:	e4c2      	b.n	8002904 <_svfprintf_r+0x1ec>
 8002f7e:	1d3b      	adds	r3, r7, #4
 8002f80:	f015 0f10 	tst.w	r5, #16
 8002f84:	9304      	str	r3, [sp, #16]
 8002f86:	d001      	beq.n	8002f8c <_svfprintf_r+0x874>
 8002f88:	683e      	ldr	r6, [r7, #0]
 8002f8a:	e002      	b.n	8002f92 <_svfprintf_r+0x87a>
 8002f8c:	066e      	lsls	r6, r5, #25
 8002f8e:	d5fb      	bpl.n	8002f88 <_svfprintf_r+0x870>
 8002f90:	883e      	ldrh	r6, [r7, #0]
 8002f92:	2700      	movs	r7, #0
 8002f94:	e4c2      	b.n	800291c <_svfprintf_r+0x204>
 8002f96:	4643      	mov	r3, r8
 8002f98:	e366      	b.n	8003668 <_svfprintf_r+0xf50>
 8002f9a:	2f00      	cmp	r7, #0
 8002f9c:	bf08      	it	eq
 8002f9e:	2e0a      	cmpeq	r6, #10
 8002fa0:	d205      	bcs.n	8002fae <_svfprintf_r+0x896>
 8002fa2:	f10d 08f0 	add.w	r8, sp, #240	; 0xf0
 8002fa6:	3630      	adds	r6, #48	; 0x30
 8002fa8:	f808 6d41 	strb.w	r6, [r8, #-65]!
 8002fac:	e377      	b.n	800369e <_svfprintf_r+0xf86>
 8002fae:	f10d 08b0 	add.w	r8, sp, #176	; 0xb0
 8002fb2:	4630      	mov	r0, r6
 8002fb4:	4639      	mov	r1, r7
 8002fb6:	220a      	movs	r2, #10
 8002fb8:	2300      	movs	r3, #0
 8002fba:	f7fd fe01 	bl	8000bc0 <__aeabi_uldivmod>
 8002fbe:	3230      	adds	r2, #48	; 0x30
 8002fc0:	f808 2d01 	strb.w	r2, [r8, #-1]!
 8002fc4:	2300      	movs	r3, #0
 8002fc6:	4630      	mov	r0, r6
 8002fc8:	4639      	mov	r1, r7
 8002fca:	220a      	movs	r2, #10
 8002fcc:	f7fd fdf8 	bl	8000bc0 <__aeabi_uldivmod>
 8002fd0:	4606      	mov	r6, r0
 8002fd2:	460f      	mov	r7, r1
 8002fd4:	ea56 0307 	orrs.w	r3, r6, r7
 8002fd8:	d1eb      	bne.n	8002fb2 <_svfprintf_r+0x89a>
 8002fda:	e360      	b.n	800369e <_svfprintf_r+0xf86>
 8002fdc:	2600      	movs	r6, #0
 8002fde:	2700      	movs	r7, #0
 8002fe0:	f10d 08b0 	add.w	r8, sp, #176	; 0xb0
 8002fe4:	f006 030f 	and.w	r3, r6, #15
 8002fe8:	9a11      	ldr	r2, [sp, #68]	; 0x44
 8002fea:	5cd3      	ldrb	r3, [r2, r3]
 8002fec:	f808 3d01 	strb.w	r3, [r8, #-1]!
 8002ff0:	0933      	lsrs	r3, r6, #4
 8002ff2:	ea43 7307 	orr.w	r3, r3, r7, lsl #28
 8002ff6:	093a      	lsrs	r2, r7, #4
 8002ff8:	461e      	mov	r6, r3
 8002ffa:	4617      	mov	r7, r2
 8002ffc:	ea56 0307 	orrs.w	r3, r6, r7
 8003000:	d1f0      	bne.n	8002fe4 <_svfprintf_r+0x8cc>
 8003002:	e34c      	b.n	800369e <_svfprintf_r+0xf86>
 8003004:	b93b      	cbnz	r3, 8003016 <_svfprintf_r+0x8fe>
 8003006:	07ea      	lsls	r2, r5, #31
 8003008:	d505      	bpl.n	8003016 <_svfprintf_r+0x8fe>
 800300a:	f10d 08f0 	add.w	r8, sp, #240	; 0xf0
 800300e:	2330      	movs	r3, #48	; 0x30
 8003010:	f808 3d41 	strb.w	r3, [r8, #-65]!
 8003014:	e343      	b.n	800369e <_svfprintf_r+0xf86>
 8003016:	f10d 08b0 	add.w	r8, sp, #176	; 0xb0
 800301a:	e340      	b.n	800369e <_svfprintf_r+0xf86>
 800301c:	b10b      	cbz	r3, 8003022 <_svfprintf_r+0x90a>
 800301e:	f88d 205f 	strb.w	r2, [sp, #95]	; 0x5f
 8003022:	9b02      	ldr	r3, [sp, #8]
 8003024:	2b00      	cmp	r3, #0
 8003026:	f000 82f7 	beq.w	8003618 <_svfprintf_r+0xf00>
 800302a:	f89d 3008 	ldrb.w	r3, [sp, #8]
 800302e:	f88d 3088 	strb.w	r3, [sp, #136]	; 0x88
 8003032:	2600      	movs	r6, #0
 8003034:	f88d 605f 	strb.w	r6, [sp, #95]	; 0x5f
 8003038:	9704      	str	r7, [sp, #16]
 800303a:	e4e8      	b.n	8002a0e <_svfprintf_r+0x2f6>
 800303c:	4606      	mov	r6, r0
 800303e:	e53f      	b.n	8002ac0 <_svfprintf_r+0x3a8>
 8003040:	2310      	movs	r3, #16
 8003042:	6063      	str	r3, [r4, #4]
 8003044:	9b21      	ldr	r3, [sp, #132]	; 0x84
 8003046:	3310      	adds	r3, #16
 8003048:	9321      	str	r3, [sp, #132]	; 0x84
 800304a:	9b20      	ldr	r3, [sp, #128]	; 0x80
 800304c:	3301      	adds	r3, #1
 800304e:	2b07      	cmp	r3, #7
 8003050:	9320      	str	r3, [sp, #128]	; 0x80
 8003052:	dc04      	bgt.n	800305e <_svfprintf_r+0x946>
 8003054:	3408      	adds	r4, #8
 8003056:	9b0c      	ldr	r3, [sp, #48]	; 0x30
 8003058:	3b10      	subs	r3, #16
 800305a:	930c      	str	r3, [sp, #48]	; 0x30
 800305c:	e615      	b.n	8002c8a <_svfprintf_r+0x572>
 800305e:	aa1f      	add	r2, sp, #124	; 0x7c
 8003060:	4651      	mov	r1, sl
 8003062:	4658      	mov	r0, fp
 8003064:	f001 fea2 	bl	8004dac <__ssprint_r>
 8003068:	2800      	cmp	r0, #0
 800306a:	f040 82b6 	bne.w	80035da <_svfprintf_r+0xec2>
 800306e:	ac2c      	add	r4, sp, #176	; 0xb0
 8003070:	e7f1      	b.n	8003056 <_svfprintf_r+0x93e>
 8003072:	aa1f      	add	r2, sp, #124	; 0x7c
 8003074:	4651      	mov	r1, sl
 8003076:	4658      	mov	r0, fp
 8003078:	f001 fe98 	bl	8004dac <__ssprint_r>
 800307c:	2800      	cmp	r0, #0
 800307e:	f040 82ac 	bne.w	80035da <_svfprintf_r+0xec2>
 8003082:	ac2c      	add	r4, sp, #176	; 0xb0
 8003084:	e614      	b.n	8002cb0 <_svfprintf_r+0x598>
 8003086:	aa1f      	add	r2, sp, #124	; 0x7c
 8003088:	4651      	mov	r1, sl
 800308a:	4658      	mov	r0, fp
 800308c:	f001 fe8e 	bl	8004dac <__ssprint_r>
 8003090:	2800      	cmp	r0, #0
 8003092:	f040 82a2 	bne.w	80035da <_svfprintf_r+0xec2>
 8003096:	ac2c      	add	r4, sp, #176	; 0xb0
 8003098:	e61c      	b.n	8002cd4 <_svfprintf_r+0x5bc>
 800309a:	aa1f      	add	r2, sp, #124	; 0x7c
 800309c:	4651      	mov	r1, sl
 800309e:	4658      	mov	r0, fp
 80030a0:	f001 fe84 	bl	8004dac <__ssprint_r>
 80030a4:	2800      	cmp	r0, #0
 80030a6:	f040 8298 	bne.w	80035da <_svfprintf_r+0xec2>
 80030aa:	ac2c      	add	r4, sp, #176	; 0xb0
 80030ac:	e622      	b.n	8002cf4 <_svfprintf_r+0x5dc>
 80030ae:	2210      	movs	r2, #16
 80030b0:	6062      	str	r2, [r4, #4]
 80030b2:	9a21      	ldr	r2, [sp, #132]	; 0x84
 80030b4:	3210      	adds	r2, #16
 80030b6:	9221      	str	r2, [sp, #132]	; 0x84
 80030b8:	9a20      	ldr	r2, [sp, #128]	; 0x80
 80030ba:	3201      	adds	r2, #1
 80030bc:	2a07      	cmp	r2, #7
 80030be:	9220      	str	r2, [sp, #128]	; 0x80
 80030c0:	dc02      	bgt.n	80030c8 <_svfprintf_r+0x9b0>
 80030c2:	3408      	adds	r4, #8
 80030c4:	3b10      	subs	r3, #16
 80030c6:	e61d      	b.n	8002d04 <_svfprintf_r+0x5ec>
 80030c8:	aa1f      	add	r2, sp, #124	; 0x7c
 80030ca:	4651      	mov	r1, sl
 80030cc:	4658      	mov	r0, fp
 80030ce:	930c      	str	r3, [sp, #48]	; 0x30
 80030d0:	f001 fe6c 	bl	8004dac <__ssprint_r>
 80030d4:	2800      	cmp	r0, #0
 80030d6:	f040 8280 	bne.w	80035da <_svfprintf_r+0xec2>
 80030da:	ac2c      	add	r4, sp, #176	; 0xb0
 80030dc:	9b0c      	ldr	r3, [sp, #48]	; 0x30
 80030de:	e7f1      	b.n	80030c4 <_svfprintf_r+0x9ac>
 80030e0:	aa1f      	add	r2, sp, #124	; 0x7c
 80030e2:	4651      	mov	r1, sl
 80030e4:	4658      	mov	r0, fp
 80030e6:	f001 fe61 	bl	8004dac <__ssprint_r>
 80030ea:	2800      	cmp	r0, #0
 80030ec:	f040 8275 	bne.w	80035da <_svfprintf_r+0xec2>
 80030f0:	ac2c      	add	r4, sp, #176	; 0xb0
 80030f2:	e617      	b.n	8002d24 <_svfprintf_r+0x60c>
 80030f4:	2310      	movs	r3, #16
 80030f6:	6063      	str	r3, [r4, #4]
 80030f8:	9b21      	ldr	r3, [sp, #132]	; 0x84
 80030fa:	3310      	adds	r3, #16
 80030fc:	9321      	str	r3, [sp, #132]	; 0x84
 80030fe:	9b20      	ldr	r3, [sp, #128]	; 0x80
 8003100:	3301      	adds	r3, #1
 8003102:	2b07      	cmp	r3, #7
 8003104:	9320      	str	r3, [sp, #128]	; 0x80
 8003106:	dc02      	bgt.n	800310e <_svfprintf_r+0x9f6>
 8003108:	3408      	adds	r4, #8
 800310a:	3e10      	subs	r6, #16
 800310c:	e60e      	b.n	8002d2c <_svfprintf_r+0x614>
 800310e:	aa1f      	add	r2, sp, #124	; 0x7c
 8003110:	4651      	mov	r1, sl
 8003112:	4658      	mov	r0, fp
 8003114:	f001 fe4a 	bl	8004dac <__ssprint_r>
 8003118:	2800      	cmp	r0, #0
 800311a:	f040 825e 	bne.w	80035da <_svfprintf_r+0xec2>
 800311e:	ac2c      	add	r4, sp, #176	; 0xb0
 8003120:	e7f3      	b.n	800310a <_svfprintf_r+0x9f2>
 8003122:	aa1f      	add	r2, sp, #124	; 0x7c
 8003124:	4651      	mov	r1, sl
 8003126:	4658      	mov	r0, fp
 8003128:	f001 fe40 	bl	8004dac <__ssprint_r>
 800312c:	2800      	cmp	r0, #0
 800312e:	f040 8254 	bne.w	80035da <_svfprintf_r+0xec2>
 8003132:	ac2c      	add	r4, sp, #176	; 0xb0
 8003134:	e60a      	b.n	8002d4c <_svfprintf_r+0x634>
 8003136:	9b02      	ldr	r3, [sp, #8]
 8003138:	2b65      	cmp	r3, #101	; 0x65
 800313a:	f340 81a9 	ble.w	8003490 <_svfprintf_r+0xd78>
 800313e:	2200      	movs	r2, #0
 8003140:	2300      	movs	r3, #0
 8003142:	e9dd 0106 	ldrd	r0, r1, [sp, #24]
 8003146:	f7fd fccb 	bl	8000ae0 <__aeabi_dcmpeq>
 800314a:	2800      	cmp	r0, #0
 800314c:	d062      	beq.n	8003214 <_svfprintf_r+0xafc>
 800314e:	4b2f      	ldr	r3, [pc, #188]	; (800320c <_svfprintf_r+0xaf4>)
 8003150:	6023      	str	r3, [r4, #0]
 8003152:	2301      	movs	r3, #1
 8003154:	6063      	str	r3, [r4, #4]
 8003156:	9b21      	ldr	r3, [sp, #132]	; 0x84
 8003158:	3301      	adds	r3, #1
 800315a:	9321      	str	r3, [sp, #132]	; 0x84
 800315c:	9b20      	ldr	r3, [sp, #128]	; 0x80
 800315e:	3301      	adds	r3, #1
 8003160:	2b07      	cmp	r3, #7
 8003162:	9320      	str	r3, [sp, #128]	; 0x80
 8003164:	dc25      	bgt.n	80031b2 <_svfprintf_r+0xa9a>
 8003166:	3408      	adds	r4, #8
 8003168:	9b19      	ldr	r3, [sp, #100]	; 0x64
 800316a:	9a03      	ldr	r2, [sp, #12]
 800316c:	4293      	cmp	r3, r2
 800316e:	db02      	blt.n	8003176 <_svfprintf_r+0xa5e>
 8003170:	07ee      	lsls	r6, r5, #31
 8003172:	f57f ae02 	bpl.w	8002d7a <_svfprintf_r+0x662>
 8003176:	9b0d      	ldr	r3, [sp, #52]	; 0x34
 8003178:	6023      	str	r3, [r4, #0]
 800317a:	9b08      	ldr	r3, [sp, #32]
 800317c:	6063      	str	r3, [r4, #4]
 800317e:	9a08      	ldr	r2, [sp, #32]
 8003180:	9b21      	ldr	r3, [sp, #132]	; 0x84
 8003182:	4413      	add	r3, r2
 8003184:	9321      	str	r3, [sp, #132]	; 0x84
 8003186:	9b20      	ldr	r3, [sp, #128]	; 0x80
 8003188:	3301      	adds	r3, #1
 800318a:	2b07      	cmp	r3, #7
 800318c:	9320      	str	r3, [sp, #128]	; 0x80
 800318e:	dc1a      	bgt.n	80031c6 <_svfprintf_r+0xaae>
 8003190:	3408      	adds	r4, #8
 8003192:	9b03      	ldr	r3, [sp, #12]
 8003194:	1e5e      	subs	r6, r3, #1
 8003196:	2e00      	cmp	r6, #0
 8003198:	f77f adef 	ble.w	8002d7a <_svfprintf_r+0x662>
 800319c:	4f1c      	ldr	r7, [pc, #112]	; (8003210 <_svfprintf_r+0xaf8>)
 800319e:	f04f 0810 	mov.w	r8, #16
 80031a2:	2e10      	cmp	r6, #16
 80031a4:	6027      	str	r7, [r4, #0]
 80031a6:	dc18      	bgt.n	80031da <_svfprintf_r+0xac2>
 80031a8:	6066      	str	r6, [r4, #4]
 80031aa:	9b21      	ldr	r3, [sp, #132]	; 0x84
 80031ac:	441e      	add	r6, r3
 80031ae:	9621      	str	r6, [sp, #132]	; 0x84
 80031b0:	e5d4      	b.n	8002d5c <_svfprintf_r+0x644>
 80031b2:	aa1f      	add	r2, sp, #124	; 0x7c
 80031b4:	4651      	mov	r1, sl
 80031b6:	4658      	mov	r0, fp
 80031b8:	f001 fdf8 	bl	8004dac <__ssprint_r>
 80031bc:	2800      	cmp	r0, #0
 80031be:	f040 820c 	bne.w	80035da <_svfprintf_r+0xec2>
 80031c2:	ac2c      	add	r4, sp, #176	; 0xb0
 80031c4:	e7d0      	b.n	8003168 <_svfprintf_r+0xa50>
 80031c6:	aa1f      	add	r2, sp, #124	; 0x7c
 80031c8:	4651      	mov	r1, sl
 80031ca:	4658      	mov	r0, fp
 80031cc:	f001 fdee 	bl	8004dac <__ssprint_r>
 80031d0:	2800      	cmp	r0, #0
 80031d2:	f040 8202 	bne.w	80035da <_svfprintf_r+0xec2>
 80031d6:	ac2c      	add	r4, sp, #176	; 0xb0
 80031d8:	e7db      	b.n	8003192 <_svfprintf_r+0xa7a>
 80031da:	9b21      	ldr	r3, [sp, #132]	; 0x84
 80031dc:	f8c4 8004 	str.w	r8, [r4, #4]
 80031e0:	3310      	adds	r3, #16
 80031e2:	9321      	str	r3, [sp, #132]	; 0x84
 80031e4:	9b20      	ldr	r3, [sp, #128]	; 0x80
 80031e6:	3301      	adds	r3, #1
 80031e8:	2b07      	cmp	r3, #7
 80031ea:	9320      	str	r3, [sp, #128]	; 0x80
 80031ec:	dc02      	bgt.n	80031f4 <_svfprintf_r+0xadc>
 80031ee:	3408      	adds	r4, #8
 80031f0:	3e10      	subs	r6, #16
 80031f2:	e7d6      	b.n	80031a2 <_svfprintf_r+0xa8a>
 80031f4:	aa1f      	add	r2, sp, #124	; 0x7c
 80031f6:	4651      	mov	r1, sl
 80031f8:	4658      	mov	r0, fp
 80031fa:	f001 fdd7 	bl	8004dac <__ssprint_r>
 80031fe:	2800      	cmp	r0, #0
 8003200:	f040 81eb 	bne.w	80035da <_svfprintf_r+0xec2>
 8003204:	ac2c      	add	r4, sp, #176	; 0xb0
 8003206:	e7f3      	b.n	80031f0 <_svfprintf_r+0xad8>
 8003208:	0800551e 	.word	0x0800551e
 800320c:	0800552f 	.word	0x0800552f
 8003210:	08005541 	.word	0x08005541
 8003214:	9b19      	ldr	r3, [sp, #100]	; 0x64
 8003216:	2b00      	cmp	r3, #0
 8003218:	dc7a      	bgt.n	8003310 <_svfprintf_r+0xbf8>
 800321a:	4b9b      	ldr	r3, [pc, #620]	; (8003488 <_svfprintf_r+0xd70>)
 800321c:	6023      	str	r3, [r4, #0]
 800321e:	2301      	movs	r3, #1
 8003220:	6063      	str	r3, [r4, #4]
 8003222:	9b21      	ldr	r3, [sp, #132]	; 0x84
 8003224:	3301      	adds	r3, #1
 8003226:	9321      	str	r3, [sp, #132]	; 0x84
 8003228:	9b20      	ldr	r3, [sp, #128]	; 0x80
 800322a:	3301      	adds	r3, #1
 800322c:	2b07      	cmp	r3, #7
 800322e:	9320      	str	r3, [sp, #128]	; 0x80
 8003230:	dc44      	bgt.n	80032bc <_svfprintf_r+0xba4>
 8003232:	3408      	adds	r4, #8
 8003234:	9b19      	ldr	r3, [sp, #100]	; 0x64
 8003236:	b923      	cbnz	r3, 8003242 <_svfprintf_r+0xb2a>
 8003238:	9b03      	ldr	r3, [sp, #12]
 800323a:	b913      	cbnz	r3, 8003242 <_svfprintf_r+0xb2a>
 800323c:	07e8      	lsls	r0, r5, #31
 800323e:	f57f ad9c 	bpl.w	8002d7a <_svfprintf_r+0x662>
 8003242:	9b0d      	ldr	r3, [sp, #52]	; 0x34
 8003244:	6023      	str	r3, [r4, #0]
 8003246:	9b08      	ldr	r3, [sp, #32]
 8003248:	6063      	str	r3, [r4, #4]
 800324a:	9a08      	ldr	r2, [sp, #32]
 800324c:	9b21      	ldr	r3, [sp, #132]	; 0x84
 800324e:	4413      	add	r3, r2
 8003250:	9321      	str	r3, [sp, #132]	; 0x84
 8003252:	9b20      	ldr	r3, [sp, #128]	; 0x80
 8003254:	3301      	adds	r3, #1
 8003256:	2b07      	cmp	r3, #7
 8003258:	9320      	str	r3, [sp, #128]	; 0x80
 800325a:	dc39      	bgt.n	80032d0 <_svfprintf_r+0xbb8>
 800325c:	f104 0308 	add.w	r3, r4, #8
 8003260:	9e19      	ldr	r6, [sp, #100]	; 0x64
 8003262:	2e00      	cmp	r6, #0
 8003264:	da19      	bge.n	800329a <_svfprintf_r+0xb82>
 8003266:	4f89      	ldr	r7, [pc, #548]	; (800348c <_svfprintf_r+0xd74>)
 8003268:	4276      	negs	r6, r6
 800326a:	2410      	movs	r4, #16
 800326c:	2e10      	cmp	r6, #16
 800326e:	601f      	str	r7, [r3, #0]
 8003270:	dc38      	bgt.n	80032e4 <_svfprintf_r+0xbcc>
 8003272:	9a21      	ldr	r2, [sp, #132]	; 0x84
 8003274:	605e      	str	r6, [r3, #4]
 8003276:	4416      	add	r6, r2
 8003278:	9a20      	ldr	r2, [sp, #128]	; 0x80
 800327a:	9621      	str	r6, [sp, #132]	; 0x84
 800327c:	3201      	adds	r2, #1
 800327e:	2a07      	cmp	r2, #7
 8003280:	f103 0308 	add.w	r3, r3, #8
 8003284:	9220      	str	r2, [sp, #128]	; 0x80
 8003286:	dd08      	ble.n	800329a <_svfprintf_r+0xb82>
 8003288:	aa1f      	add	r2, sp, #124	; 0x7c
 800328a:	4651      	mov	r1, sl
 800328c:	4658      	mov	r0, fp
 800328e:	f001 fd8d 	bl	8004dac <__ssprint_r>
 8003292:	2800      	cmp	r0, #0
 8003294:	f040 81a1 	bne.w	80035da <_svfprintf_r+0xec2>
 8003298:	ab2c      	add	r3, sp, #176	; 0xb0
 800329a:	9a03      	ldr	r2, [sp, #12]
 800329c:	605a      	str	r2, [r3, #4]
 800329e:	9903      	ldr	r1, [sp, #12]
 80032a0:	9a21      	ldr	r2, [sp, #132]	; 0x84
 80032a2:	f8c3 8000 	str.w	r8, [r3]
 80032a6:	440a      	add	r2, r1
 80032a8:	9221      	str	r2, [sp, #132]	; 0x84
 80032aa:	9a20      	ldr	r2, [sp, #128]	; 0x80
 80032ac:	3201      	adds	r2, #1
 80032ae:	2a07      	cmp	r2, #7
 80032b0:	9220      	str	r2, [sp, #128]	; 0x80
 80032b2:	f73f ad59 	bgt.w	8002d68 <_svfprintf_r+0x650>
 80032b6:	f103 0408 	add.w	r4, r3, #8
 80032ba:	e55e      	b.n	8002d7a <_svfprintf_r+0x662>
 80032bc:	aa1f      	add	r2, sp, #124	; 0x7c
 80032be:	4651      	mov	r1, sl
 80032c0:	4658      	mov	r0, fp
 80032c2:	f001 fd73 	bl	8004dac <__ssprint_r>
 80032c6:	2800      	cmp	r0, #0
 80032c8:	f040 8187 	bne.w	80035da <_svfprintf_r+0xec2>
 80032cc:	ac2c      	add	r4, sp, #176	; 0xb0
 80032ce:	e7b1      	b.n	8003234 <_svfprintf_r+0xb1c>
 80032d0:	aa1f      	add	r2, sp, #124	; 0x7c
 80032d2:	4651      	mov	r1, sl
 80032d4:	4658      	mov	r0, fp
 80032d6:	f001 fd69 	bl	8004dac <__ssprint_r>
 80032da:	2800      	cmp	r0, #0
 80032dc:	f040 817d 	bne.w	80035da <_svfprintf_r+0xec2>
 80032e0:	ab2c      	add	r3, sp, #176	; 0xb0
 80032e2:	e7bd      	b.n	8003260 <_svfprintf_r+0xb48>
 80032e4:	9a21      	ldr	r2, [sp, #132]	; 0x84
 80032e6:	605c      	str	r4, [r3, #4]
 80032e8:	3210      	adds	r2, #16
 80032ea:	9221      	str	r2, [sp, #132]	; 0x84
 80032ec:	9a20      	ldr	r2, [sp, #128]	; 0x80
 80032ee:	3201      	adds	r2, #1
 80032f0:	2a07      	cmp	r2, #7
 80032f2:	9220      	str	r2, [sp, #128]	; 0x80
 80032f4:	dc02      	bgt.n	80032fc <_svfprintf_r+0xbe4>
 80032f6:	3308      	adds	r3, #8
 80032f8:	3e10      	subs	r6, #16
 80032fa:	e7b7      	b.n	800326c <_svfprintf_r+0xb54>
 80032fc:	aa1f      	add	r2, sp, #124	; 0x7c
 80032fe:	4651      	mov	r1, sl
 8003300:	4658      	mov	r0, fp
 8003302:	f001 fd53 	bl	8004dac <__ssprint_r>
 8003306:	2800      	cmp	r0, #0
 8003308:	f040 8167 	bne.w	80035da <_svfprintf_r+0xec2>
 800330c:	ab2c      	add	r3, sp, #176	; 0xb0
 800330e:	e7f3      	b.n	80032f8 <_svfprintf_r+0xbe0>
 8003310:	9b03      	ldr	r3, [sp, #12]
 8003312:	42bb      	cmp	r3, r7
 8003314:	bfa8      	it	ge
 8003316:	463b      	movge	r3, r7
 8003318:	2b00      	cmp	r3, #0
 800331a:	461e      	mov	r6, r3
 800331c:	dd0b      	ble.n	8003336 <_svfprintf_r+0xc1e>
 800331e:	6063      	str	r3, [r4, #4]
 8003320:	9b21      	ldr	r3, [sp, #132]	; 0x84
 8003322:	f8c4 8000 	str.w	r8, [r4]
 8003326:	4433      	add	r3, r6
 8003328:	9321      	str	r3, [sp, #132]	; 0x84
 800332a:	9b20      	ldr	r3, [sp, #128]	; 0x80
 800332c:	3301      	adds	r3, #1
 800332e:	2b07      	cmp	r3, #7
 8003330:	9320      	str	r3, [sp, #128]	; 0x80
 8003332:	dc5f      	bgt.n	80033f4 <_svfprintf_r+0xcdc>
 8003334:	3408      	adds	r4, #8
 8003336:	2e00      	cmp	r6, #0
 8003338:	bfac      	ite	ge
 800333a:	1bbe      	subge	r6, r7, r6
 800333c:	463e      	movlt	r6, r7
 800333e:	2e00      	cmp	r6, #0
 8003340:	dd0f      	ble.n	8003362 <_svfprintf_r+0xc4a>
 8003342:	f8df 9148 	ldr.w	r9, [pc, #328]	; 800348c <_svfprintf_r+0xd74>
 8003346:	f8c4 9000 	str.w	r9, [r4]
 800334a:	2e10      	cmp	r6, #16
 800334c:	dc5c      	bgt.n	8003408 <_svfprintf_r+0xcf0>
 800334e:	9b21      	ldr	r3, [sp, #132]	; 0x84
 8003350:	6066      	str	r6, [r4, #4]
 8003352:	441e      	add	r6, r3
 8003354:	9b20      	ldr	r3, [sp, #128]	; 0x80
 8003356:	9621      	str	r6, [sp, #132]	; 0x84
 8003358:	3301      	adds	r3, #1
 800335a:	2b07      	cmp	r3, #7
 800335c:	9320      	str	r3, [sp, #128]	; 0x80
 800335e:	dc6a      	bgt.n	8003436 <_svfprintf_r+0xd1e>
 8003360:	3408      	adds	r4, #8
 8003362:	9b19      	ldr	r3, [sp, #100]	; 0x64
 8003364:	9a03      	ldr	r2, [sp, #12]
 8003366:	4293      	cmp	r3, r2
 8003368:	db01      	blt.n	800336e <_svfprintf_r+0xc56>
 800336a:	07e9      	lsls	r1, r5, #31
 800336c:	d50d      	bpl.n	800338a <_svfprintf_r+0xc72>
 800336e:	9b0d      	ldr	r3, [sp, #52]	; 0x34
 8003370:	6023      	str	r3, [r4, #0]
 8003372:	9b08      	ldr	r3, [sp, #32]
 8003374:	6063      	str	r3, [r4, #4]
 8003376:	9a08      	ldr	r2, [sp, #32]
 8003378:	9b21      	ldr	r3, [sp, #132]	; 0x84
 800337a:	4413      	add	r3, r2
 800337c:	9321      	str	r3, [sp, #132]	; 0x84
 800337e:	9b20      	ldr	r3, [sp, #128]	; 0x80
 8003380:	3301      	adds	r3, #1
 8003382:	2b07      	cmp	r3, #7
 8003384:	9320      	str	r3, [sp, #128]	; 0x80
 8003386:	dc60      	bgt.n	800344a <_svfprintf_r+0xd32>
 8003388:	3408      	adds	r4, #8
 800338a:	9b03      	ldr	r3, [sp, #12]
 800338c:	9a03      	ldr	r2, [sp, #12]
 800338e:	1bde      	subs	r6, r3, r7
 8003390:	9b19      	ldr	r3, [sp, #100]	; 0x64
 8003392:	1ad3      	subs	r3, r2, r3
 8003394:	429e      	cmp	r6, r3
 8003396:	bfa8      	it	ge
 8003398:	461e      	movge	r6, r3
 800339a:	2e00      	cmp	r6, #0
 800339c:	dd0b      	ble.n	80033b6 <_svfprintf_r+0xc9e>
 800339e:	9b21      	ldr	r3, [sp, #132]	; 0x84
 80033a0:	6066      	str	r6, [r4, #4]
 80033a2:	4433      	add	r3, r6
 80033a4:	9321      	str	r3, [sp, #132]	; 0x84
 80033a6:	9b20      	ldr	r3, [sp, #128]	; 0x80
 80033a8:	3301      	adds	r3, #1
 80033aa:	4447      	add	r7, r8
 80033ac:	2b07      	cmp	r3, #7
 80033ae:	6027      	str	r7, [r4, #0]
 80033b0:	9320      	str	r3, [sp, #128]	; 0x80
 80033b2:	dc54      	bgt.n	800345e <_svfprintf_r+0xd46>
 80033b4:	3408      	adds	r4, #8
 80033b6:	9b19      	ldr	r3, [sp, #100]	; 0x64
 80033b8:	9a03      	ldr	r2, [sp, #12]
 80033ba:	2e00      	cmp	r6, #0
 80033bc:	eba2 0303 	sub.w	r3, r2, r3
 80033c0:	bfac      	ite	ge
 80033c2:	1b9e      	subge	r6, r3, r6
 80033c4:	461e      	movlt	r6, r3
 80033c6:	2e00      	cmp	r6, #0
 80033c8:	f77f acd7 	ble.w	8002d7a <_svfprintf_r+0x662>
 80033cc:	4f2f      	ldr	r7, [pc, #188]	; (800348c <_svfprintf_r+0xd74>)
 80033ce:	f04f 0810 	mov.w	r8, #16
 80033d2:	2e10      	cmp	r6, #16
 80033d4:	6027      	str	r7, [r4, #0]
 80033d6:	f77f aee7 	ble.w	80031a8 <_svfprintf_r+0xa90>
 80033da:	9b21      	ldr	r3, [sp, #132]	; 0x84
 80033dc:	f8c4 8004 	str.w	r8, [r4, #4]
 80033e0:	3310      	adds	r3, #16
 80033e2:	9321      	str	r3, [sp, #132]	; 0x84
 80033e4:	9b20      	ldr	r3, [sp, #128]	; 0x80
 80033e6:	3301      	adds	r3, #1
 80033e8:	2b07      	cmp	r3, #7
 80033ea:	9320      	str	r3, [sp, #128]	; 0x80
 80033ec:	dc41      	bgt.n	8003472 <_svfprintf_r+0xd5a>
 80033ee:	3408      	adds	r4, #8
 80033f0:	3e10      	subs	r6, #16
 80033f2:	e7ee      	b.n	80033d2 <_svfprintf_r+0xcba>
 80033f4:	aa1f      	add	r2, sp, #124	; 0x7c
 80033f6:	4651      	mov	r1, sl
 80033f8:	4658      	mov	r0, fp
 80033fa:	f001 fcd7 	bl	8004dac <__ssprint_r>
 80033fe:	2800      	cmp	r0, #0
 8003400:	f040 80eb 	bne.w	80035da <_svfprintf_r+0xec2>
 8003404:	ac2c      	add	r4, sp, #176	; 0xb0
 8003406:	e796      	b.n	8003336 <_svfprintf_r+0xc1e>
 8003408:	2310      	movs	r3, #16
 800340a:	6063      	str	r3, [r4, #4]
 800340c:	9b21      	ldr	r3, [sp, #132]	; 0x84
 800340e:	3310      	adds	r3, #16
 8003410:	9321      	str	r3, [sp, #132]	; 0x84
 8003412:	9b20      	ldr	r3, [sp, #128]	; 0x80
 8003414:	3301      	adds	r3, #1
 8003416:	2b07      	cmp	r3, #7
 8003418:	9320      	str	r3, [sp, #128]	; 0x80
 800341a:	dc02      	bgt.n	8003422 <_svfprintf_r+0xd0a>
 800341c:	3408      	adds	r4, #8
 800341e:	3e10      	subs	r6, #16
 8003420:	e791      	b.n	8003346 <_svfprintf_r+0xc2e>
 8003422:	aa1f      	add	r2, sp, #124	; 0x7c
 8003424:	4651      	mov	r1, sl
 8003426:	4658      	mov	r0, fp
 8003428:	f001 fcc0 	bl	8004dac <__ssprint_r>
 800342c:	2800      	cmp	r0, #0
 800342e:	f040 80d4 	bne.w	80035da <_svfprintf_r+0xec2>
 8003432:	ac2c      	add	r4, sp, #176	; 0xb0
 8003434:	e7f3      	b.n	800341e <_svfprintf_r+0xd06>
 8003436:	aa1f      	add	r2, sp, #124	; 0x7c
 8003438:	4651      	mov	r1, sl
 800343a:	4658      	mov	r0, fp
 800343c:	f001 fcb6 	bl	8004dac <__ssprint_r>
 8003440:	2800      	cmp	r0, #0
 8003442:	f040 80ca 	bne.w	80035da <_svfprintf_r+0xec2>
 8003446:	ac2c      	add	r4, sp, #176	; 0xb0
 8003448:	e78b      	b.n	8003362 <_svfprintf_r+0xc4a>
 800344a:	aa1f      	add	r2, sp, #124	; 0x7c
 800344c:	4651      	mov	r1, sl
 800344e:	4658      	mov	r0, fp
 8003450:	f001 fcac 	bl	8004dac <__ssprint_r>
 8003454:	2800      	cmp	r0, #0
 8003456:	f040 80c0 	bne.w	80035da <_svfprintf_r+0xec2>
 800345a:	ac2c      	add	r4, sp, #176	; 0xb0
 800345c:	e795      	b.n	800338a <_svfprintf_r+0xc72>
 800345e:	aa1f      	add	r2, sp, #124	; 0x7c
 8003460:	4651      	mov	r1, sl
 8003462:	4658      	mov	r0, fp
 8003464:	f001 fca2 	bl	8004dac <__ssprint_r>
 8003468:	2800      	cmp	r0, #0
 800346a:	f040 80b6 	bne.w	80035da <_svfprintf_r+0xec2>
 800346e:	ac2c      	add	r4, sp, #176	; 0xb0
 8003470:	e7a1      	b.n	80033b6 <_svfprintf_r+0xc9e>
 8003472:	aa1f      	add	r2, sp, #124	; 0x7c
 8003474:	4651      	mov	r1, sl
 8003476:	4658      	mov	r0, fp
 8003478:	f001 fc98 	bl	8004dac <__ssprint_r>
 800347c:	2800      	cmp	r0, #0
 800347e:	f040 80ac 	bne.w	80035da <_svfprintf_r+0xec2>
 8003482:	ac2c      	add	r4, sp, #176	; 0xb0
 8003484:	e7b4      	b.n	80033f0 <_svfprintf_r+0xcd8>
 8003486:	bf00      	nop
 8003488:	0800552f 	.word	0x0800552f
 800348c:	08005541 	.word	0x08005541
 8003490:	9b03      	ldr	r3, [sp, #12]
 8003492:	2b01      	cmp	r3, #1
 8003494:	dc01      	bgt.n	800349a <_svfprintf_r+0xd82>
 8003496:	07ea      	lsls	r2, r5, #31
 8003498:	d576      	bpl.n	8003588 <_svfprintf_r+0xe70>
 800349a:	2301      	movs	r3, #1
 800349c:	6063      	str	r3, [r4, #4]
 800349e:	9b21      	ldr	r3, [sp, #132]	; 0x84
 80034a0:	f8c4 8000 	str.w	r8, [r4]
 80034a4:	3301      	adds	r3, #1
 80034a6:	9321      	str	r3, [sp, #132]	; 0x84
 80034a8:	9b20      	ldr	r3, [sp, #128]	; 0x80
 80034aa:	3301      	adds	r3, #1
 80034ac:	2b07      	cmp	r3, #7
 80034ae:	9320      	str	r3, [sp, #128]	; 0x80
 80034b0:	dc36      	bgt.n	8003520 <_svfprintf_r+0xe08>
 80034b2:	3408      	adds	r4, #8
 80034b4:	9b0d      	ldr	r3, [sp, #52]	; 0x34
 80034b6:	6023      	str	r3, [r4, #0]
 80034b8:	9b08      	ldr	r3, [sp, #32]
 80034ba:	6063      	str	r3, [r4, #4]
 80034bc:	9a08      	ldr	r2, [sp, #32]
 80034be:	9b21      	ldr	r3, [sp, #132]	; 0x84
 80034c0:	4413      	add	r3, r2
 80034c2:	9321      	str	r3, [sp, #132]	; 0x84
 80034c4:	9b20      	ldr	r3, [sp, #128]	; 0x80
 80034c6:	3301      	adds	r3, #1
 80034c8:	2b07      	cmp	r3, #7
 80034ca:	9320      	str	r3, [sp, #128]	; 0x80
 80034cc:	dc31      	bgt.n	8003532 <_svfprintf_r+0xe1a>
 80034ce:	3408      	adds	r4, #8
 80034d0:	2300      	movs	r3, #0
 80034d2:	2200      	movs	r2, #0
 80034d4:	e9dd 0106 	ldrd	r0, r1, [sp, #24]
 80034d8:	f7fd fb02 	bl	8000ae0 <__aeabi_dcmpeq>
 80034dc:	9b03      	ldr	r3, [sp, #12]
 80034de:	1e5e      	subs	r6, r3, #1
 80034e0:	2800      	cmp	r0, #0
 80034e2:	d12f      	bne.n	8003544 <_svfprintf_r+0xe2c>
 80034e4:	f108 0301 	add.w	r3, r8, #1
 80034e8:	e884 0048 	stmia.w	r4, {r3, r6}
 80034ec:	9b21      	ldr	r3, [sp, #132]	; 0x84
 80034ee:	9a03      	ldr	r2, [sp, #12]
 80034f0:	3b01      	subs	r3, #1
 80034f2:	4413      	add	r3, r2
 80034f4:	9321      	str	r3, [sp, #132]	; 0x84
 80034f6:	9b20      	ldr	r3, [sp, #128]	; 0x80
 80034f8:	3301      	adds	r3, #1
 80034fa:	2b07      	cmp	r3, #7
 80034fc:	9320      	str	r3, [sp, #128]	; 0x80
 80034fe:	dd4a      	ble.n	8003596 <_svfprintf_r+0xe7e>
 8003500:	aa1f      	add	r2, sp, #124	; 0x7c
 8003502:	4651      	mov	r1, sl
 8003504:	4658      	mov	r0, fp
 8003506:	f001 fc51 	bl	8004dac <__ssprint_r>
 800350a:	2800      	cmp	r0, #0
 800350c:	d165      	bne.n	80035da <_svfprintf_r+0xec2>
 800350e:	ac2c      	add	r4, sp, #176	; 0xb0
 8003510:	ab1b      	add	r3, sp, #108	; 0x6c
 8003512:	6023      	str	r3, [r4, #0]
 8003514:	9b10      	ldr	r3, [sp, #64]	; 0x40
 8003516:	6063      	str	r3, [r4, #4]
 8003518:	9a10      	ldr	r2, [sp, #64]	; 0x40
 800351a:	9b21      	ldr	r3, [sp, #132]	; 0x84
 800351c:	4413      	add	r3, r2
 800351e:	e41c      	b.n	8002d5a <_svfprintf_r+0x642>
 8003520:	aa1f      	add	r2, sp, #124	; 0x7c
 8003522:	4651      	mov	r1, sl
 8003524:	4658      	mov	r0, fp
 8003526:	f001 fc41 	bl	8004dac <__ssprint_r>
 800352a:	2800      	cmp	r0, #0
 800352c:	d155      	bne.n	80035da <_svfprintf_r+0xec2>
 800352e:	ac2c      	add	r4, sp, #176	; 0xb0
 8003530:	e7c0      	b.n	80034b4 <_svfprintf_r+0xd9c>
 8003532:	aa1f      	add	r2, sp, #124	; 0x7c
 8003534:	4651      	mov	r1, sl
 8003536:	4658      	mov	r0, fp
 8003538:	f001 fc38 	bl	8004dac <__ssprint_r>
 800353c:	2800      	cmp	r0, #0
 800353e:	d14c      	bne.n	80035da <_svfprintf_r+0xec2>
 8003540:	ac2c      	add	r4, sp, #176	; 0xb0
 8003542:	e7c5      	b.n	80034d0 <_svfprintf_r+0xdb8>
 8003544:	2e00      	cmp	r6, #0
 8003546:	dde3      	ble.n	8003510 <_svfprintf_r+0xdf8>
 8003548:	4f59      	ldr	r7, [pc, #356]	; (80036b0 <_svfprintf_r+0xf98>)
 800354a:	f04f 0810 	mov.w	r8, #16
 800354e:	2e10      	cmp	r6, #16
 8003550:	6027      	str	r7, [r4, #0]
 8003552:	dc04      	bgt.n	800355e <_svfprintf_r+0xe46>
 8003554:	9b21      	ldr	r3, [sp, #132]	; 0x84
 8003556:	6066      	str	r6, [r4, #4]
 8003558:	441e      	add	r6, r3
 800355a:	9621      	str	r6, [sp, #132]	; 0x84
 800355c:	e7cb      	b.n	80034f6 <_svfprintf_r+0xdde>
 800355e:	9b21      	ldr	r3, [sp, #132]	; 0x84
 8003560:	f8c4 8004 	str.w	r8, [r4, #4]
 8003564:	3310      	adds	r3, #16
 8003566:	9321      	str	r3, [sp, #132]	; 0x84
 8003568:	9b20      	ldr	r3, [sp, #128]	; 0x80
 800356a:	3301      	adds	r3, #1
 800356c:	2b07      	cmp	r3, #7
 800356e:	9320      	str	r3, [sp, #128]	; 0x80
 8003570:	dc02      	bgt.n	8003578 <_svfprintf_r+0xe60>
 8003572:	3408      	adds	r4, #8
 8003574:	3e10      	subs	r6, #16
 8003576:	e7ea      	b.n	800354e <_svfprintf_r+0xe36>
 8003578:	aa1f      	add	r2, sp, #124	; 0x7c
 800357a:	4651      	mov	r1, sl
 800357c:	4658      	mov	r0, fp
 800357e:	f001 fc15 	bl	8004dac <__ssprint_r>
 8003582:	bb50      	cbnz	r0, 80035da <_svfprintf_r+0xec2>
 8003584:	ac2c      	add	r4, sp, #176	; 0xb0
 8003586:	e7f5      	b.n	8003574 <_svfprintf_r+0xe5c>
 8003588:	2301      	movs	r3, #1
 800358a:	6063      	str	r3, [r4, #4]
 800358c:	9b21      	ldr	r3, [sp, #132]	; 0x84
 800358e:	f8c4 8000 	str.w	r8, [r4]
 8003592:	3301      	adds	r3, #1
 8003594:	e7ae      	b.n	80034f4 <_svfprintf_r+0xddc>
 8003596:	3408      	adds	r4, #8
 8003598:	e7ba      	b.n	8003510 <_svfprintf_r+0xdf8>
 800359a:	3408      	adds	r4, #8
 800359c:	f7ff bbed 	b.w	8002d7a <_svfprintf_r+0x662>
 80035a0:	9b0a      	ldr	r3, [sp, #40]	; 0x28
 80035a2:	9a0b      	ldr	r2, [sp, #44]	; 0x2c
 80035a4:	1a9d      	subs	r5, r3, r2
 80035a6:	2d00      	cmp	r5, #0
 80035a8:	f77f abea 	ble.w	8002d80 <_svfprintf_r+0x668>
 80035ac:	2610      	movs	r6, #16
 80035ae:	4b41      	ldr	r3, [pc, #260]	; (80036b4 <_svfprintf_r+0xf9c>)
 80035b0:	6023      	str	r3, [r4, #0]
 80035b2:	2d10      	cmp	r5, #16
 80035b4:	dc1b      	bgt.n	80035ee <_svfprintf_r+0xed6>
 80035b6:	9b21      	ldr	r3, [sp, #132]	; 0x84
 80035b8:	6065      	str	r5, [r4, #4]
 80035ba:	441d      	add	r5, r3
 80035bc:	9b20      	ldr	r3, [sp, #128]	; 0x80
 80035be:	9521      	str	r5, [sp, #132]	; 0x84
 80035c0:	3301      	adds	r3, #1
 80035c2:	2b07      	cmp	r3, #7
 80035c4:	9320      	str	r3, [sp, #128]	; 0x80
 80035c6:	f77f abdb 	ble.w	8002d80 <_svfprintf_r+0x668>
 80035ca:	aa1f      	add	r2, sp, #124	; 0x7c
 80035cc:	4651      	mov	r1, sl
 80035ce:	4658      	mov	r0, fp
 80035d0:	f001 fbec 	bl	8004dac <__ssprint_r>
 80035d4:	2800      	cmp	r0, #0
 80035d6:	f43f abd3 	beq.w	8002d80 <_svfprintf_r+0x668>
 80035da:	f8ba 300c 	ldrh.w	r3, [sl, #12]
 80035de:	f013 0f40 	tst.w	r3, #64	; 0x40
 80035e2:	9b09      	ldr	r3, [sp, #36]	; 0x24
 80035e4:	bf18      	it	ne
 80035e6:	f04f 33ff 	movne.w	r3, #4294967295	; 0xffffffff
 80035ea:	f7ff b8b9 	b.w	8002760 <_svfprintf_r+0x48>
 80035ee:	9b21      	ldr	r3, [sp, #132]	; 0x84
 80035f0:	6066      	str	r6, [r4, #4]
 80035f2:	3310      	adds	r3, #16
 80035f4:	9321      	str	r3, [sp, #132]	; 0x84
 80035f6:	9b20      	ldr	r3, [sp, #128]	; 0x80
 80035f8:	3301      	adds	r3, #1
 80035fa:	2b07      	cmp	r3, #7
 80035fc:	9320      	str	r3, [sp, #128]	; 0x80
 80035fe:	dc02      	bgt.n	8003606 <_svfprintf_r+0xeee>
 8003600:	3408      	adds	r4, #8
 8003602:	3d10      	subs	r5, #16
 8003604:	e7d3      	b.n	80035ae <_svfprintf_r+0xe96>
 8003606:	aa1f      	add	r2, sp, #124	; 0x7c
 8003608:	4651      	mov	r1, sl
 800360a:	4658      	mov	r0, fp
 800360c:	f001 fbce 	bl	8004dac <__ssprint_r>
 8003610:	2800      	cmp	r0, #0
 8003612:	d1e2      	bne.n	80035da <_svfprintf_r+0xec2>
 8003614:	ac2c      	add	r4, sp, #176	; 0xb0
 8003616:	e7f4      	b.n	8003602 <_svfprintf_r+0xeea>
 8003618:	9b21      	ldr	r3, [sp, #132]	; 0x84
 800361a:	2b00      	cmp	r3, #0
 800361c:	d0dd      	beq.n	80035da <_svfprintf_r+0xec2>
 800361e:	aa1f      	add	r2, sp, #124	; 0x7c
 8003620:	4651      	mov	r1, sl
 8003622:	4658      	mov	r0, fp
 8003624:	f001 fbc2 	bl	8004dac <__ssprint_r>
 8003628:	e7d7      	b.n	80035da <_svfprintf_r+0xec2>
 800362a:	e9dd 2306 	ldrd	r2, r3, [sp, #24]
 800362e:	4610      	mov	r0, r2
 8003630:	4619      	mov	r1, r3
 8003632:	f7fd fa87 	bl	8000b44 <__aeabi_dcmpun>
 8003636:	2800      	cmp	r0, #0
 8003638:	f43f aa44 	beq.w	8002ac4 <_svfprintf_r+0x3ac>
 800363c:	4b1e      	ldr	r3, [pc, #120]	; (80036b8 <_svfprintf_r+0xfa0>)
 800363e:	4a1f      	ldr	r2, [pc, #124]	; (80036bc <_svfprintf_r+0xfa4>)
 8003640:	f7ff ba34 	b.w	8002aac <_svfprintf_r+0x394>
 8003644:	9b1d      	ldr	r3, [sp, #116]	; 0x74
 8003646:	eba3 0308 	sub.w	r3, r3, r8
 800364a:	9303      	str	r3, [sp, #12]
 800364c:	f7ff bab5 	b.w	8002bba <_svfprintf_r+0x4a2>
 8003650:	ea56 0207 	orrs.w	r2, r6, r7
 8003654:	950b      	str	r5, [sp, #44]	; 0x2c
 8003656:	f43f ac2b 	beq.w	8002eb0 <_svfprintf_r+0x798>
 800365a:	2b01      	cmp	r3, #1
 800365c:	f43f ac9d 	beq.w	8002f9a <_svfprintf_r+0x882>
 8003660:	2b02      	cmp	r3, #2
 8003662:	f43f acbd 	beq.w	8002fe0 <_svfprintf_r+0x8c8>
 8003666:	ab2c      	add	r3, sp, #176	; 0xb0
 8003668:	08f1      	lsrs	r1, r6, #3
 800366a:	ea41 7147 	orr.w	r1, r1, r7, lsl #29
 800366e:	08f8      	lsrs	r0, r7, #3
 8003670:	f006 0207 	and.w	r2, r6, #7
 8003674:	4607      	mov	r7, r0
 8003676:	460e      	mov	r6, r1
 8003678:	3230      	adds	r2, #48	; 0x30
 800367a:	ea56 0107 	orrs.w	r1, r6, r7
 800367e:	f103 38ff 	add.w	r8, r3, #4294967295	; 0xffffffff
 8003682:	f803 2c01 	strb.w	r2, [r3, #-1]
 8003686:	f47f ac86 	bne.w	8002f96 <_svfprintf_r+0x87e>
 800368a:	990b      	ldr	r1, [sp, #44]	; 0x2c
 800368c:	07c9      	lsls	r1, r1, #31
 800368e:	d506      	bpl.n	800369e <_svfprintf_r+0xf86>
 8003690:	2a30      	cmp	r2, #48	; 0x30
 8003692:	d004      	beq.n	800369e <_svfprintf_r+0xf86>
 8003694:	2230      	movs	r2, #48	; 0x30
 8003696:	f808 2c01 	strb.w	r2, [r8, #-1]
 800369a:	f1a3 0802 	sub.w	r8, r3, #2
 800369e:	464e      	mov	r6, r9
 80036a0:	f10d 09b0 	add.w	r9, sp, #176	; 0xb0
 80036a4:	eba9 0908 	sub.w	r9, r9, r8
 80036a8:	9d0b      	ldr	r5, [sp, #44]	; 0x2c
 80036aa:	2700      	movs	r7, #0
 80036ac:	f7ff bad1 	b.w	8002c52 <_svfprintf_r+0x53a>
 80036b0:	08005541 	.word	0x08005541
 80036b4:	08005531 	.word	0x08005531
 80036b8:	08005505 	.word	0x08005505
 80036bc:	08005509 	.word	0x08005509

080036c0 <quorem>:
 80036c0:	e92d 4ff7 	stmdb	sp!, {r0, r1, r2, r4, r5, r6, r7, r8, r9, sl, fp, lr}
 80036c4:	6903      	ldr	r3, [r0, #16]
 80036c6:	690c      	ldr	r4, [r1, #16]
 80036c8:	429c      	cmp	r4, r3
 80036ca:	4680      	mov	r8, r0
 80036cc:	f300 8082 	bgt.w	80037d4 <quorem+0x114>
 80036d0:	3c01      	subs	r4, #1
 80036d2:	f101 0714 	add.w	r7, r1, #20
 80036d6:	ea4f 0e84 	mov.w	lr, r4, lsl #2
 80036da:	f100 0614 	add.w	r6, r0, #20
 80036de:	f857 5024 	ldr.w	r5, [r7, r4, lsl #2]
 80036e2:	f856 0024 	ldr.w	r0, [r6, r4, lsl #2]
 80036e6:	eb06 030e 	add.w	r3, r6, lr
 80036ea:	3501      	adds	r5, #1
 80036ec:	eb07 090e 	add.w	r9, r7, lr
 80036f0:	9301      	str	r3, [sp, #4]
 80036f2:	fbb0 f5f5 	udiv	r5, r0, r5
 80036f6:	b395      	cbz	r5, 800375e <quorem+0x9e>
 80036f8:	f04f 0a00 	mov.w	sl, #0
 80036fc:	4638      	mov	r0, r7
 80036fe:	46b4      	mov	ip, r6
 8003700:	46d3      	mov	fp, sl
 8003702:	f850 2b04 	ldr.w	r2, [r0], #4
 8003706:	b293      	uxth	r3, r2
 8003708:	fb05 a303 	mla	r3, r5, r3, sl
 800370c:	ea4f 4a13 	mov.w	sl, r3, lsr #16
 8003710:	b29b      	uxth	r3, r3
 8003712:	ebab 0303 	sub.w	r3, fp, r3
 8003716:	0c12      	lsrs	r2, r2, #16
 8003718:	f8bc b000 	ldrh.w	fp, [ip]
 800371c:	fb05 a202 	mla	r2, r5, r2, sl
 8003720:	fa13 f38b 	uxtah	r3, r3, fp
 8003724:	ea4f 4a12 	mov.w	sl, r2, lsr #16
 8003728:	fa1f fb82 	uxth.w	fp, r2
 800372c:	f8dc 2000 	ldr.w	r2, [ip]
 8003730:	ebcb 4212 	rsb	r2, fp, r2, lsr #16
 8003734:	eb02 4223 	add.w	r2, r2, r3, asr #16
 8003738:	b29b      	uxth	r3, r3
 800373a:	ea43 4302 	orr.w	r3, r3, r2, lsl #16
 800373e:	4581      	cmp	r9, r0
 8003740:	ea4f 4b22 	mov.w	fp, r2, asr #16
 8003744:	f84c 3b04 	str.w	r3, [ip], #4
 8003748:	d2db      	bcs.n	8003702 <quorem+0x42>
 800374a:	f856 300e 	ldr.w	r3, [r6, lr]
 800374e:	b933      	cbnz	r3, 800375e <quorem+0x9e>
 8003750:	9b01      	ldr	r3, [sp, #4]
 8003752:	3b04      	subs	r3, #4
 8003754:	429e      	cmp	r6, r3
 8003756:	461a      	mov	r2, r3
 8003758:	d330      	bcc.n	80037bc <quorem+0xfc>
 800375a:	f8c8 4010 	str.w	r4, [r8, #16]
 800375e:	4640      	mov	r0, r8
 8003760:	f001 fa4d 	bl	8004bfe <__mcmp>
 8003764:	2800      	cmp	r0, #0
 8003766:	db25      	blt.n	80037b4 <quorem+0xf4>
 8003768:	3501      	adds	r5, #1
 800376a:	4630      	mov	r0, r6
 800376c:	f04f 0e00 	mov.w	lr, #0
 8003770:	f857 2b04 	ldr.w	r2, [r7], #4
 8003774:	f8d0 c000 	ldr.w	ip, [r0]
 8003778:	b293      	uxth	r3, r2
 800377a:	ebae 0303 	sub.w	r3, lr, r3
 800377e:	0c12      	lsrs	r2, r2, #16
 8003780:	fa13 f38c 	uxtah	r3, r3, ip
 8003784:	ebc2 421c 	rsb	r2, r2, ip, lsr #16
 8003788:	eb02 4223 	add.w	r2, r2, r3, asr #16
 800378c:	b29b      	uxth	r3, r3
 800378e:	ea43 4302 	orr.w	r3, r3, r2, lsl #16
 8003792:	45b9      	cmp	r9, r7
 8003794:	ea4f 4e22 	mov.w	lr, r2, asr #16
 8003798:	f840 3b04 	str.w	r3, [r0], #4
 800379c:	d2e8      	bcs.n	8003770 <quorem+0xb0>
 800379e:	f856 2024 	ldr.w	r2, [r6, r4, lsl #2]
 80037a2:	eb06 0384 	add.w	r3, r6, r4, lsl #2
 80037a6:	b92a      	cbnz	r2, 80037b4 <quorem+0xf4>
 80037a8:	3b04      	subs	r3, #4
 80037aa:	429e      	cmp	r6, r3
 80037ac:	461a      	mov	r2, r3
 80037ae:	d30b      	bcc.n	80037c8 <quorem+0x108>
 80037b0:	f8c8 4010 	str.w	r4, [r8, #16]
 80037b4:	4628      	mov	r0, r5
 80037b6:	b003      	add	sp, #12
 80037b8:	e8bd 8ff0 	ldmia.w	sp!, {r4, r5, r6, r7, r8, r9, sl, fp, pc}
 80037bc:	6812      	ldr	r2, [r2, #0]
 80037be:	3b04      	subs	r3, #4
 80037c0:	2a00      	cmp	r2, #0
 80037c2:	d1ca      	bne.n	800375a <quorem+0x9a>
 80037c4:	3c01      	subs	r4, #1
 80037c6:	e7c5      	b.n	8003754 <quorem+0x94>
 80037c8:	6812      	ldr	r2, [r2, #0]
 80037ca:	3b04      	subs	r3, #4
 80037cc:	2a00      	cmp	r2, #0
 80037ce:	d1ef      	bne.n	80037b0 <quorem+0xf0>
 80037d0:	3c01      	subs	r4, #1
 80037d2:	e7ea      	b.n	80037aa <quorem+0xea>
 80037d4:	2000      	movs	r0, #0
 80037d6:	e7ee      	b.n	80037b6 <quorem+0xf6>

080037d8 <_dtoa_r>:
 80037d8:	e92d 4ff0 	stmdb	sp!, {r4, r5, r6, r7, r8, r9, sl, fp, lr}
 80037dc:	ec57 6b10 	vmov	r6, r7, d0
 80037e0:	b097      	sub	sp, #92	; 0x5c
 80037e2:	e9cd 6700 	strd	r6, r7, [sp]
 80037e6:	6a46      	ldr	r6, [r0, #36]	; 0x24
 80037e8:	9107      	str	r1, [sp, #28]
 80037ea:	4604      	mov	r4, r0
 80037ec:	920a      	str	r2, [sp, #40]	; 0x28
 80037ee:	930f      	str	r3, [sp, #60]	; 0x3c
 80037f0:	9d20      	ldr	r5, [sp, #128]	; 0x80
 80037f2:	b93e      	cbnz	r6, 8003804 <_dtoa_r+0x2c>
 80037f4:	2010      	movs	r0, #16
 80037f6:	f000 fdcb 	bl	8004390 <malloc>
 80037fa:	6260      	str	r0, [r4, #36]	; 0x24
 80037fc:	6046      	str	r6, [r0, #4]
 80037fe:	6086      	str	r6, [r0, #8]
 8003800:	6006      	str	r6, [r0, #0]
 8003802:	60c6      	str	r6, [r0, #12]
 8003804:	6a63      	ldr	r3, [r4, #36]	; 0x24
 8003806:	6819      	ldr	r1, [r3, #0]
 8003808:	b151      	cbz	r1, 8003820 <_dtoa_r+0x48>
 800380a:	685a      	ldr	r2, [r3, #4]
 800380c:	604a      	str	r2, [r1, #4]
 800380e:	2301      	movs	r3, #1
 8003810:	4093      	lsls	r3, r2
 8003812:	608b      	str	r3, [r1, #8]
 8003814:	4620      	mov	r0, r4
 8003816:	f001 f81d 	bl	8004854 <_Bfree>
 800381a:	6a63      	ldr	r3, [r4, #36]	; 0x24
 800381c:	2200      	movs	r2, #0
 800381e:	601a      	str	r2, [r3, #0]
 8003820:	9b01      	ldr	r3, [sp, #4]
 8003822:	2b00      	cmp	r3, #0
 8003824:	bfbf      	itttt	lt
 8003826:	2301      	movlt	r3, #1
 8003828:	602b      	strlt	r3, [r5, #0]
 800382a:	9b01      	ldrlt	r3, [sp, #4]
 800382c:	f023 4300 	biclt.w	r3, r3, #2147483648	; 0x80000000
 8003830:	bfb2      	itee	lt
 8003832:	9301      	strlt	r3, [sp, #4]
 8003834:	2300      	movge	r3, #0
 8003836:	602b      	strge	r3, [r5, #0]
 8003838:	f8dd 8004 	ldr.w	r8, [sp, #4]
 800383c:	4ba8      	ldr	r3, [pc, #672]	; (8003ae0 <_dtoa_r+0x308>)
 800383e:	ea33 0308 	bics.w	r3, r3, r8
 8003842:	d11b      	bne.n	800387c <_dtoa_r+0xa4>
 8003844:	9a0f      	ldr	r2, [sp, #60]	; 0x3c
 8003846:	f242 730f 	movw	r3, #9999	; 0x270f
 800384a:	6013      	str	r3, [r2, #0]
 800384c:	9b00      	ldr	r3, [sp, #0]
 800384e:	b923      	cbnz	r3, 800385a <_dtoa_r+0x82>
 8003850:	f3c8 0013 	ubfx	r0, r8, #0, #20
 8003854:	2800      	cmp	r0, #0
 8003856:	f000 8578 	beq.w	800434a <_dtoa_r+0xb72>
 800385a:	9b21      	ldr	r3, [sp, #132]	; 0x84
 800385c:	b953      	cbnz	r3, 8003874 <_dtoa_r+0x9c>
 800385e:	4ba1      	ldr	r3, [pc, #644]	; (8003ae4 <_dtoa_r+0x30c>)
 8003860:	e021      	b.n	80038a6 <_dtoa_r+0xce>
 8003862:	4ba1      	ldr	r3, [pc, #644]	; (8003ae8 <_dtoa_r+0x310>)
 8003864:	9302      	str	r3, [sp, #8]
 8003866:	3308      	adds	r3, #8
 8003868:	9a21      	ldr	r2, [sp, #132]	; 0x84
 800386a:	6013      	str	r3, [r2, #0]
 800386c:	9802      	ldr	r0, [sp, #8]
 800386e:	b017      	add	sp, #92	; 0x5c
 8003870:	e8bd 8ff0 	ldmia.w	sp!, {r4, r5, r6, r7, r8, r9, sl, fp, pc}
 8003874:	4b9b      	ldr	r3, [pc, #620]	; (8003ae4 <_dtoa_r+0x30c>)
 8003876:	9302      	str	r3, [sp, #8]
 8003878:	3303      	adds	r3, #3
 800387a:	e7f5      	b.n	8003868 <_dtoa_r+0x90>
 800387c:	e9dd 6700 	ldrd	r6, r7, [sp]
 8003880:	2200      	movs	r2, #0
 8003882:	2300      	movs	r3, #0
 8003884:	4630      	mov	r0, r6
 8003886:	4639      	mov	r1, r7
 8003888:	f7fd f92a 	bl	8000ae0 <__aeabi_dcmpeq>
 800388c:	4681      	mov	r9, r0
 800388e:	b160      	cbz	r0, 80038aa <_dtoa_r+0xd2>
 8003890:	9a0f      	ldr	r2, [sp, #60]	; 0x3c
 8003892:	2301      	movs	r3, #1
 8003894:	6013      	str	r3, [r2, #0]
 8003896:	9b21      	ldr	r3, [sp, #132]	; 0x84
 8003898:	2b00      	cmp	r3, #0
 800389a:	f000 8553 	beq.w	8004344 <_dtoa_r+0xb6c>
 800389e:	4b93      	ldr	r3, [pc, #588]	; (8003aec <_dtoa_r+0x314>)
 80038a0:	9a21      	ldr	r2, [sp, #132]	; 0x84
 80038a2:	6013      	str	r3, [r2, #0]
 80038a4:	3b01      	subs	r3, #1
 80038a6:	9302      	str	r3, [sp, #8]
 80038a8:	e7e0      	b.n	800386c <_dtoa_r+0x94>
 80038aa:	aa14      	add	r2, sp, #80	; 0x50
 80038ac:	a915      	add	r1, sp, #84	; 0x54
 80038ae:	ec47 6b10 	vmov	d0, r6, r7
 80038b2:	4620      	mov	r0, r4
 80038b4:	f001 fa1b 	bl	8004cee <__d2b>
 80038b8:	f3c8 550a 	ubfx	r5, r8, #20, #11
 80038bc:	4682      	mov	sl, r0
 80038be:	2d00      	cmp	r5, #0
 80038c0:	d07e      	beq.n	80039c0 <_dtoa_r+0x1e8>
 80038c2:	f3c7 0313 	ubfx	r3, r7, #0, #20
 80038c6:	f043 517f 	orr.w	r1, r3, #1069547520	; 0x3fc00000
 80038ca:	4630      	mov	r0, r6
 80038cc:	f441 1140 	orr.w	r1, r1, #3145728	; 0x300000
 80038d0:	f2a5 35ff 	subw	r5, r5, #1023	; 0x3ff
 80038d4:	f8cd 9048 	str.w	r9, [sp, #72]	; 0x48
 80038d8:	2200      	movs	r2, #0
 80038da:	4b85      	ldr	r3, [pc, #532]	; (8003af0 <_dtoa_r+0x318>)
 80038dc:	f7fc fce4 	bl	80002a8 <__aeabi_dsub>
 80038e0:	a379      	add	r3, pc, #484	; (adr r3, 8003ac8 <_dtoa_r+0x2f0>)
 80038e2:	e9d3 2300 	ldrd	r2, r3, [r3]
 80038e6:	f7fc fe93 	bl	8000610 <__aeabi_dmul>
 80038ea:	a379      	add	r3, pc, #484	; (adr r3, 8003ad0 <_dtoa_r+0x2f8>)
 80038ec:	e9d3 2300 	ldrd	r2, r3, [r3]
 80038f0:	f7fc fcdc 	bl	80002ac <__adddf3>
 80038f4:	4606      	mov	r6, r0
 80038f6:	4628      	mov	r0, r5
 80038f8:	460f      	mov	r7, r1
 80038fa:	f7fc fe23 	bl	8000544 <__aeabi_i2d>
 80038fe:	a376      	add	r3, pc, #472	; (adr r3, 8003ad8 <_dtoa_r+0x300>)
 8003900:	e9d3 2300 	ldrd	r2, r3, [r3]
 8003904:	f7fc fe84 	bl	8000610 <__aeabi_dmul>
 8003908:	4602      	mov	r2, r0
 800390a:	460b      	mov	r3, r1
 800390c:	4630      	mov	r0, r6
 800390e:	4639      	mov	r1, r7
 8003910:	f7fc fccc 	bl	80002ac <__adddf3>
 8003914:	4606      	mov	r6, r0
 8003916:	460f      	mov	r7, r1
 8003918:	f7fd f92a 	bl	8000b70 <__aeabi_d2iz>
 800391c:	2200      	movs	r2, #0
 800391e:	4683      	mov	fp, r0
 8003920:	2300      	movs	r3, #0
 8003922:	4630      	mov	r0, r6
 8003924:	4639      	mov	r1, r7
 8003926:	f7fd f8e5 	bl	8000af4 <__aeabi_dcmplt>
 800392a:	b158      	cbz	r0, 8003944 <_dtoa_r+0x16c>
 800392c:	4658      	mov	r0, fp
 800392e:	f7fc fe09 	bl	8000544 <__aeabi_i2d>
 8003932:	4602      	mov	r2, r0
 8003934:	460b      	mov	r3, r1
 8003936:	4630      	mov	r0, r6
 8003938:	4639      	mov	r1, r7
 800393a:	f7fd f8d1 	bl	8000ae0 <__aeabi_dcmpeq>
 800393e:	b908      	cbnz	r0, 8003944 <_dtoa_r+0x16c>
 8003940:	f10b 3bff 	add.w	fp, fp, #4294967295	; 0xffffffff
 8003944:	f1bb 0f16 	cmp.w	fp, #22
 8003948:	d859      	bhi.n	80039fe <_dtoa_r+0x226>
 800394a:	496a      	ldr	r1, [pc, #424]	; (8003af4 <_dtoa_r+0x31c>)
 800394c:	eb01 01cb 	add.w	r1, r1, fp, lsl #3
 8003950:	e9dd 2300 	ldrd	r2, r3, [sp]
 8003954:	e9d1 0100 	ldrd	r0, r1, [r1]
 8003958:	f7fd f8ea 	bl	8000b30 <__aeabi_dcmpgt>
 800395c:	2800      	cmp	r0, #0
 800395e:	d050      	beq.n	8003a02 <_dtoa_r+0x22a>
 8003960:	f10b 3bff 	add.w	fp, fp, #4294967295	; 0xffffffff
 8003964:	2300      	movs	r3, #0
 8003966:	930e      	str	r3, [sp, #56]	; 0x38
 8003968:	9b14      	ldr	r3, [sp, #80]	; 0x50
 800396a:	1b5d      	subs	r5, r3, r5
 800396c:	1e6b      	subs	r3, r5, #1
 800396e:	9306      	str	r3, [sp, #24]
 8003970:	bf45      	ittet	mi
 8003972:	f1c5 0301 	rsbmi	r3, r5, #1
 8003976:	9305      	strmi	r3, [sp, #20]
 8003978:	2300      	movpl	r3, #0
 800397a:	2300      	movmi	r3, #0
 800397c:	bf4c      	ite	mi
 800397e:	9306      	strmi	r3, [sp, #24]
 8003980:	9305      	strpl	r3, [sp, #20]
 8003982:	f1bb 0f00 	cmp.w	fp, #0
 8003986:	db3e      	blt.n	8003a06 <_dtoa_r+0x22e>
 8003988:	9b06      	ldr	r3, [sp, #24]
 800398a:	f8cd b02c 	str.w	fp, [sp, #44]	; 0x2c
 800398e:	445b      	add	r3, fp
 8003990:	9306      	str	r3, [sp, #24]
 8003992:	2300      	movs	r3, #0
 8003994:	9308      	str	r3, [sp, #32]
 8003996:	9b07      	ldr	r3, [sp, #28]
 8003998:	2b09      	cmp	r3, #9
 800399a:	f200 80af 	bhi.w	8003afc <_dtoa_r+0x324>
 800399e:	2b05      	cmp	r3, #5
 80039a0:	bfc4      	itt	gt
 80039a2:	3b04      	subgt	r3, #4
 80039a4:	9307      	strgt	r3, [sp, #28]
 80039a6:	9b07      	ldr	r3, [sp, #28]
 80039a8:	f1a3 0302 	sub.w	r3, r3, #2
 80039ac:	bfcc      	ite	gt
 80039ae:	2600      	movgt	r6, #0
 80039b0:	2601      	movle	r6, #1
 80039b2:	2b03      	cmp	r3, #3
 80039b4:	f200 80ae 	bhi.w	8003b14 <_dtoa_r+0x33c>
 80039b8:	e8df f003 	tbb	[pc, r3]
 80039bc:	772f8482 	.word	0x772f8482
 80039c0:	9b15      	ldr	r3, [sp, #84]	; 0x54
 80039c2:	9d14      	ldr	r5, [sp, #80]	; 0x50
 80039c4:	441d      	add	r5, r3
 80039c6:	f205 4332 	addw	r3, r5, #1074	; 0x432
 80039ca:	2b20      	cmp	r3, #32
 80039cc:	dd11      	ble.n	80039f2 <_dtoa_r+0x21a>
 80039ce:	9a00      	ldr	r2, [sp, #0]
 80039d0:	f205 4012 	addw	r0, r5, #1042	; 0x412
 80039d4:	f1c3 0340 	rsb	r3, r3, #64	; 0x40
 80039d8:	fa22 f000 	lsr.w	r0, r2, r0
 80039dc:	fa08 f303 	lsl.w	r3, r8, r3
 80039e0:	4318      	orrs	r0, r3
 80039e2:	f7fc fd9f 	bl	8000524 <__aeabi_ui2d>
 80039e6:	2301      	movs	r3, #1
 80039e8:	f1a1 71f8 	sub.w	r1, r1, #32505856	; 0x1f00000
 80039ec:	3d01      	subs	r5, #1
 80039ee:	9312      	str	r3, [sp, #72]	; 0x48
 80039f0:	e772      	b.n	80038d8 <_dtoa_r+0x100>
 80039f2:	f1c3 0020 	rsb	r0, r3, #32
 80039f6:	9b00      	ldr	r3, [sp, #0]
 80039f8:	fa03 f000 	lsl.w	r0, r3, r0
 80039fc:	e7f1      	b.n	80039e2 <_dtoa_r+0x20a>
 80039fe:	2301      	movs	r3, #1
 8003a00:	e7b1      	b.n	8003966 <_dtoa_r+0x18e>
 8003a02:	900e      	str	r0, [sp, #56]	; 0x38
 8003a04:	e7b0      	b.n	8003968 <_dtoa_r+0x190>
 8003a06:	9b05      	ldr	r3, [sp, #20]
 8003a08:	eba3 030b 	sub.w	r3, r3, fp
 8003a0c:	9305      	str	r3, [sp, #20]
 8003a0e:	f1cb 0300 	rsb	r3, fp, #0
 8003a12:	9308      	str	r3, [sp, #32]
 8003a14:	2300      	movs	r3, #0
 8003a16:	930b      	str	r3, [sp, #44]	; 0x2c
 8003a18:	e7bd      	b.n	8003996 <_dtoa_r+0x1be>
 8003a1a:	2301      	movs	r3, #1
 8003a1c:	9309      	str	r3, [sp, #36]	; 0x24
 8003a1e:	9b0a      	ldr	r3, [sp, #40]	; 0x28
 8003a20:	2b00      	cmp	r3, #0
 8003a22:	dd7a      	ble.n	8003b1a <_dtoa_r+0x342>
 8003a24:	9304      	str	r3, [sp, #16]
 8003a26:	9303      	str	r3, [sp, #12]
 8003a28:	6a65      	ldr	r5, [r4, #36]	; 0x24
 8003a2a:	2200      	movs	r2, #0
 8003a2c:	606a      	str	r2, [r5, #4]
 8003a2e:	2104      	movs	r1, #4
 8003a30:	f101 0214 	add.w	r2, r1, #20
 8003a34:	429a      	cmp	r2, r3
 8003a36:	d975      	bls.n	8003b24 <_dtoa_r+0x34c>
 8003a38:	6869      	ldr	r1, [r5, #4]
 8003a3a:	4620      	mov	r0, r4
 8003a3c:	f000 fed6 	bl	80047ec <_Balloc>
 8003a40:	6a63      	ldr	r3, [r4, #36]	; 0x24
 8003a42:	6028      	str	r0, [r5, #0]
 8003a44:	681b      	ldr	r3, [r3, #0]
 8003a46:	9302      	str	r3, [sp, #8]
 8003a48:	9b03      	ldr	r3, [sp, #12]
 8003a4a:	2b0e      	cmp	r3, #14
 8003a4c:	f200 80e5 	bhi.w	8003c1a <_dtoa_r+0x442>
 8003a50:	2e00      	cmp	r6, #0
 8003a52:	f000 80e2 	beq.w	8003c1a <_dtoa_r+0x442>
 8003a56:	ed9d 7b00 	vldr	d7, [sp]
 8003a5a:	f1bb 0f00 	cmp.w	fp, #0
 8003a5e:	ed8d 7b0c 	vstr	d7, [sp, #48]	; 0x30
 8003a62:	dd74      	ble.n	8003b4e <_dtoa_r+0x376>
 8003a64:	4a23      	ldr	r2, [pc, #140]	; (8003af4 <_dtoa_r+0x31c>)
 8003a66:	f00b 030f 	and.w	r3, fp, #15
 8003a6a:	ea4f 162b 	mov.w	r6, fp, asr #4
 8003a6e:	eb02 03c3 	add.w	r3, r2, r3, lsl #3
 8003a72:	06f0      	lsls	r0, r6, #27
 8003a74:	e9d3 8900 	ldrd	r8, r9, [r3]
 8003a78:	d559      	bpl.n	8003b2e <_dtoa_r+0x356>
 8003a7a:	4b1f      	ldr	r3, [pc, #124]	; (8003af8 <_dtoa_r+0x320>)
 8003a7c:	ec51 0b17 	vmov	r0, r1, d7
 8003a80:	e9d3 2308 	ldrd	r2, r3, [r3, #32]
 8003a84:	f7fc feee 	bl	8000864 <__aeabi_ddiv>
 8003a88:	e9cd 0100 	strd	r0, r1, [sp]
 8003a8c:	f006 060f 	and.w	r6, r6, #15
 8003a90:	2503      	movs	r5, #3
 8003a92:	4f19      	ldr	r7, [pc, #100]	; (8003af8 <_dtoa_r+0x320>)
 8003a94:	2e00      	cmp	r6, #0
 8003a96:	d14c      	bne.n	8003b32 <_dtoa_r+0x35a>
 8003a98:	4642      	mov	r2, r8
 8003a9a:	464b      	mov	r3, r9
 8003a9c:	e9dd 0100 	ldrd	r0, r1, [sp]
 8003aa0:	f7fc fee0 	bl	8000864 <__aeabi_ddiv>
 8003aa4:	e9cd 0100 	strd	r0, r1, [sp]
 8003aa8:	e06a      	b.n	8003b80 <_dtoa_r+0x3a8>
 8003aaa:	2301      	movs	r3, #1
 8003aac:	9309      	str	r3, [sp, #36]	; 0x24
 8003aae:	9b0a      	ldr	r3, [sp, #40]	; 0x28
 8003ab0:	445b      	add	r3, fp
 8003ab2:	9304      	str	r3, [sp, #16]
 8003ab4:	3301      	adds	r3, #1
 8003ab6:	2b01      	cmp	r3, #1
 8003ab8:	9303      	str	r3, [sp, #12]
 8003aba:	bfb8      	it	lt
 8003abc:	2301      	movlt	r3, #1
 8003abe:	e7b3      	b.n	8003a28 <_dtoa_r+0x250>
 8003ac0:	2300      	movs	r3, #0
 8003ac2:	e7ab      	b.n	8003a1c <_dtoa_r+0x244>
 8003ac4:	2300      	movs	r3, #0
 8003ac6:	e7f1      	b.n	8003aac <_dtoa_r+0x2d4>
 8003ac8:	636f4361 	.word	0x636f4361
 8003acc:	3fd287a7 	.word	0x3fd287a7
 8003ad0:	8b60c8b3 	.word	0x8b60c8b3
 8003ad4:	3fc68a28 	.word	0x3fc68a28
 8003ad8:	509f79fb 	.word	0x509f79fb
 8003adc:	3fd34413 	.word	0x3fd34413
 8003ae0:	7ff00000 	.word	0x7ff00000
 8003ae4:	0800555a 	.word	0x0800555a
 8003ae8:	08005551 	.word	0x08005551
 8003aec:	08005530 	.word	0x08005530
 8003af0:	3ff80000 	.word	0x3ff80000
 8003af4:	08005588 	.word	0x08005588
 8003af8:	08005560 	.word	0x08005560
 8003afc:	2601      	movs	r6, #1
 8003afe:	2300      	movs	r3, #0
 8003b00:	9307      	str	r3, [sp, #28]
 8003b02:	9609      	str	r6, [sp, #36]	; 0x24
 8003b04:	f04f 33ff 	mov.w	r3, #4294967295	; 0xffffffff
 8003b08:	9304      	str	r3, [sp, #16]
 8003b0a:	9303      	str	r3, [sp, #12]
 8003b0c:	2200      	movs	r2, #0
 8003b0e:	2312      	movs	r3, #18
 8003b10:	920a      	str	r2, [sp, #40]	; 0x28
 8003b12:	e789      	b.n	8003a28 <_dtoa_r+0x250>
 8003b14:	2301      	movs	r3, #1
 8003b16:	9309      	str	r3, [sp, #36]	; 0x24
 8003b18:	e7f4      	b.n	8003b04 <_dtoa_r+0x32c>
 8003b1a:	2301      	movs	r3, #1
 8003b1c:	9304      	str	r3, [sp, #16]
 8003b1e:	9303      	str	r3, [sp, #12]
 8003b20:	461a      	mov	r2, r3
 8003b22:	e7f5      	b.n	8003b10 <_dtoa_r+0x338>
 8003b24:	686a      	ldr	r2, [r5, #4]
 8003b26:	3201      	adds	r2, #1
 8003b28:	606a      	str	r2, [r5, #4]
 8003b2a:	0049      	lsls	r1, r1, #1
 8003b2c:	e780      	b.n	8003a30 <_dtoa_r+0x258>
 8003b2e:	2502      	movs	r5, #2
 8003b30:	e7af      	b.n	8003a92 <_dtoa_r+0x2ba>
 8003b32:	07f1      	lsls	r1, r6, #31
 8003b34:	d508      	bpl.n	8003b48 <_dtoa_r+0x370>
 8003b36:	4640      	mov	r0, r8
 8003b38:	4649      	mov	r1, r9
 8003b3a:	e9d7 2300 	ldrd	r2, r3, [r7]
 8003b3e:	f7fc fd67 	bl	8000610 <__aeabi_dmul>
 8003b42:	3501      	adds	r5, #1
 8003b44:	4680      	mov	r8, r0
 8003b46:	4689      	mov	r9, r1
 8003b48:	1076      	asrs	r6, r6, #1
 8003b4a:	3708      	adds	r7, #8
 8003b4c:	e7a2      	b.n	8003a94 <_dtoa_r+0x2bc>
 8003b4e:	f000 809d 	beq.w	8003c8c <_dtoa_r+0x4b4>
 8003b52:	f1cb 0600 	rsb	r6, fp, #0
 8003b56:	4b9f      	ldr	r3, [pc, #636]	; (8003dd4 <_dtoa_r+0x5fc>)
 8003b58:	4f9f      	ldr	r7, [pc, #636]	; (8003dd8 <_dtoa_r+0x600>)
 8003b5a:	f006 020f 	and.w	r2, r6, #15
 8003b5e:	eb03 03c2 	add.w	r3, r3, r2, lsl #3
 8003b62:	e9d3 2300 	ldrd	r2, r3, [r3]
 8003b66:	e9dd 010c 	ldrd	r0, r1, [sp, #48]	; 0x30
 8003b6a:	f7fc fd51 	bl	8000610 <__aeabi_dmul>
 8003b6e:	e9cd 0100 	strd	r0, r1, [sp]
 8003b72:	1136      	asrs	r6, r6, #4
 8003b74:	2300      	movs	r3, #0
 8003b76:	2502      	movs	r5, #2
 8003b78:	2e00      	cmp	r6, #0
 8003b7a:	d17c      	bne.n	8003c76 <_dtoa_r+0x49e>
 8003b7c:	2b00      	cmp	r3, #0
 8003b7e:	d191      	bne.n	8003aa4 <_dtoa_r+0x2cc>
 8003b80:	9b0e      	ldr	r3, [sp, #56]	; 0x38
 8003b82:	2b00      	cmp	r3, #0
 8003b84:	f000 8084 	beq.w	8003c90 <_dtoa_r+0x4b8>
 8003b88:	e9dd 8900 	ldrd	r8, r9, [sp]
 8003b8c:	2200      	movs	r2, #0
 8003b8e:	4b93      	ldr	r3, [pc, #588]	; (8003ddc <_dtoa_r+0x604>)
 8003b90:	4640      	mov	r0, r8
 8003b92:	4649      	mov	r1, r9
 8003b94:	f7fc ffae 	bl	8000af4 <__aeabi_dcmplt>
 8003b98:	2800      	cmp	r0, #0
 8003b9a:	d079      	beq.n	8003c90 <_dtoa_r+0x4b8>
 8003b9c:	9b03      	ldr	r3, [sp, #12]
 8003b9e:	2b00      	cmp	r3, #0
 8003ba0:	d076      	beq.n	8003c90 <_dtoa_r+0x4b8>
 8003ba2:	9b04      	ldr	r3, [sp, #16]
 8003ba4:	2b00      	cmp	r3, #0
 8003ba6:	dd34      	ble.n	8003c12 <_dtoa_r+0x43a>
 8003ba8:	2200      	movs	r2, #0
 8003baa:	4b8d      	ldr	r3, [pc, #564]	; (8003de0 <_dtoa_r+0x608>)
 8003bac:	4640      	mov	r0, r8
 8003bae:	4649      	mov	r1, r9
 8003bb0:	f7fc fd2e 	bl	8000610 <__aeabi_dmul>
 8003bb4:	e9cd 0100 	strd	r0, r1, [sp]
 8003bb8:	9e04      	ldr	r6, [sp, #16]
 8003bba:	f10b 37ff 	add.w	r7, fp, #4294967295	; 0xffffffff
 8003bbe:	3501      	adds	r5, #1
 8003bc0:	4628      	mov	r0, r5
 8003bc2:	f7fc fcbf 	bl	8000544 <__aeabi_i2d>
 8003bc6:	e9dd 2300 	ldrd	r2, r3, [sp]
 8003bca:	f7fc fd21 	bl	8000610 <__aeabi_dmul>
 8003bce:	2200      	movs	r2, #0
 8003bd0:	4b84      	ldr	r3, [pc, #528]	; (8003de4 <_dtoa_r+0x60c>)
 8003bd2:	f7fc fb6b 	bl	80002ac <__adddf3>
 8003bd6:	4680      	mov	r8, r0
 8003bd8:	f1a1 7950 	sub.w	r9, r1, #54525952	; 0x3400000
 8003bdc:	2e00      	cmp	r6, #0
 8003bde:	d15a      	bne.n	8003c96 <_dtoa_r+0x4be>
 8003be0:	2200      	movs	r2, #0
 8003be2:	4b81      	ldr	r3, [pc, #516]	; (8003de8 <_dtoa_r+0x610>)
 8003be4:	e9dd 0100 	ldrd	r0, r1, [sp]
 8003be8:	f7fc fb5e 	bl	80002a8 <__aeabi_dsub>
 8003bec:	4642      	mov	r2, r8
 8003bee:	464b      	mov	r3, r9
 8003bf0:	e9cd 0100 	strd	r0, r1, [sp]
 8003bf4:	f7fc ff9c 	bl	8000b30 <__aeabi_dcmpgt>
 8003bf8:	2800      	cmp	r0, #0
 8003bfa:	f040 829b 	bne.w	8004134 <_dtoa_r+0x95c>
 8003bfe:	4642      	mov	r2, r8
 8003c00:	f109 4300 	add.w	r3, r9, #2147483648	; 0x80000000
 8003c04:	e9dd 0100 	ldrd	r0, r1, [sp]
 8003c08:	f7fc ff74 	bl	8000af4 <__aeabi_dcmplt>
 8003c0c:	2800      	cmp	r0, #0
 8003c0e:	f040 828f 	bne.w	8004130 <_dtoa_r+0x958>
 8003c12:	e9dd 230c 	ldrd	r2, r3, [sp, #48]	; 0x30
 8003c16:	e9cd 2300 	strd	r2, r3, [sp]
 8003c1a:	9b15      	ldr	r3, [sp, #84]	; 0x54
 8003c1c:	2b00      	cmp	r3, #0
 8003c1e:	f2c0 8150 	blt.w	8003ec2 <_dtoa_r+0x6ea>
 8003c22:	f1bb 0f0e 	cmp.w	fp, #14
 8003c26:	f300 814c 	bgt.w	8003ec2 <_dtoa_r+0x6ea>
 8003c2a:	4b6a      	ldr	r3, [pc, #424]	; (8003dd4 <_dtoa_r+0x5fc>)
 8003c2c:	eb03 03cb 	add.w	r3, r3, fp, lsl #3
 8003c30:	e9d3 8900 	ldrd	r8, r9, [r3]
 8003c34:	9b0a      	ldr	r3, [sp, #40]	; 0x28
 8003c36:	2b00      	cmp	r3, #0
 8003c38:	f280 80da 	bge.w	8003df0 <_dtoa_r+0x618>
 8003c3c:	9b03      	ldr	r3, [sp, #12]
 8003c3e:	2b00      	cmp	r3, #0
 8003c40:	f300 80d6 	bgt.w	8003df0 <_dtoa_r+0x618>
 8003c44:	f040 8273 	bne.w	800412e <_dtoa_r+0x956>
 8003c48:	2200      	movs	r2, #0
 8003c4a:	4b67      	ldr	r3, [pc, #412]	; (8003de8 <_dtoa_r+0x610>)
 8003c4c:	4640      	mov	r0, r8
 8003c4e:	4649      	mov	r1, r9
 8003c50:	f7fc fcde 	bl	8000610 <__aeabi_dmul>
 8003c54:	e9dd 2300 	ldrd	r2, r3, [sp]
 8003c58:	f7fc ff60 	bl	8000b1c <__aeabi_dcmpge>
 8003c5c:	9e03      	ldr	r6, [sp, #12]
 8003c5e:	4637      	mov	r7, r6
 8003c60:	2800      	cmp	r0, #0
 8003c62:	f040 824a 	bne.w	80040fa <_dtoa_r+0x922>
 8003c66:	9b02      	ldr	r3, [sp, #8]
 8003c68:	9a02      	ldr	r2, [sp, #8]
 8003c6a:	1c5d      	adds	r5, r3, #1
 8003c6c:	2331      	movs	r3, #49	; 0x31
 8003c6e:	7013      	strb	r3, [r2, #0]
 8003c70:	f10b 0b01 	add.w	fp, fp, #1
 8003c74:	e245      	b.n	8004102 <_dtoa_r+0x92a>
 8003c76:	07f2      	lsls	r2, r6, #31
 8003c78:	d505      	bpl.n	8003c86 <_dtoa_r+0x4ae>
 8003c7a:	e9d7 2300 	ldrd	r2, r3, [r7]
 8003c7e:	f7fc fcc7 	bl	8000610 <__aeabi_dmul>
 8003c82:	3501      	adds	r5, #1
 8003c84:	2301      	movs	r3, #1
 8003c86:	1076      	asrs	r6, r6, #1
 8003c88:	3708      	adds	r7, #8
 8003c8a:	e775      	b.n	8003b78 <_dtoa_r+0x3a0>
 8003c8c:	2502      	movs	r5, #2
 8003c8e:	e777      	b.n	8003b80 <_dtoa_r+0x3a8>
 8003c90:	465f      	mov	r7, fp
 8003c92:	9e03      	ldr	r6, [sp, #12]
 8003c94:	e794      	b.n	8003bc0 <_dtoa_r+0x3e8>
 8003c96:	9a02      	ldr	r2, [sp, #8]
 8003c98:	4b4e      	ldr	r3, [pc, #312]	; (8003dd4 <_dtoa_r+0x5fc>)
 8003c9a:	4432      	add	r2, r6
 8003c9c:	9213      	str	r2, [sp, #76]	; 0x4c
 8003c9e:	9a09      	ldr	r2, [sp, #36]	; 0x24
 8003ca0:	1e71      	subs	r1, r6, #1
 8003ca2:	2a00      	cmp	r2, #0
 8003ca4:	d048      	beq.n	8003d38 <_dtoa_r+0x560>
 8003ca6:	eb03 03c1 	add.w	r3, r3, r1, lsl #3
 8003caa:	e9d3 2300 	ldrd	r2, r3, [r3]
 8003cae:	2000      	movs	r0, #0
 8003cb0:	494e      	ldr	r1, [pc, #312]	; (8003dec <_dtoa_r+0x614>)
 8003cb2:	f7fc fdd7 	bl	8000864 <__aeabi_ddiv>
 8003cb6:	4642      	mov	r2, r8
 8003cb8:	464b      	mov	r3, r9
 8003cba:	f7fc faf5 	bl	80002a8 <__aeabi_dsub>
 8003cbe:	9d02      	ldr	r5, [sp, #8]
 8003cc0:	4680      	mov	r8, r0
 8003cc2:	4689      	mov	r9, r1
 8003cc4:	e9dd 0100 	ldrd	r0, r1, [sp]
 8003cc8:	f7fc ff52 	bl	8000b70 <__aeabi_d2iz>
 8003ccc:	4606      	mov	r6, r0
 8003cce:	f7fc fc39 	bl	8000544 <__aeabi_i2d>
 8003cd2:	4602      	mov	r2, r0
 8003cd4:	460b      	mov	r3, r1
 8003cd6:	e9dd 0100 	ldrd	r0, r1, [sp]
 8003cda:	f7fc fae5 	bl	80002a8 <__aeabi_dsub>
 8003cde:	3630      	adds	r6, #48	; 0x30
 8003ce0:	f805 6b01 	strb.w	r6, [r5], #1
 8003ce4:	4642      	mov	r2, r8
 8003ce6:	464b      	mov	r3, r9
 8003ce8:	e9cd 0100 	strd	r0, r1, [sp]
 8003cec:	f7fc ff02 	bl	8000af4 <__aeabi_dcmplt>
 8003cf0:	2800      	cmp	r0, #0
 8003cf2:	d165      	bne.n	8003dc0 <_dtoa_r+0x5e8>
 8003cf4:	e9dd 2300 	ldrd	r2, r3, [sp]
 8003cf8:	2000      	movs	r0, #0
 8003cfa:	4938      	ldr	r1, [pc, #224]	; (8003ddc <_dtoa_r+0x604>)
 8003cfc:	f7fc fad4 	bl	80002a8 <__aeabi_dsub>
 8003d00:	4642      	mov	r2, r8
 8003d02:	464b      	mov	r3, r9
 8003d04:	f7fc fef6 	bl	8000af4 <__aeabi_dcmplt>
 8003d08:	2800      	cmp	r0, #0
 8003d0a:	f040 80ba 	bne.w	8003e82 <_dtoa_r+0x6aa>
 8003d0e:	9b13      	ldr	r3, [sp, #76]	; 0x4c
 8003d10:	429d      	cmp	r5, r3
 8003d12:	f43f af7e 	beq.w	8003c12 <_dtoa_r+0x43a>
 8003d16:	2200      	movs	r2, #0
 8003d18:	4b31      	ldr	r3, [pc, #196]	; (8003de0 <_dtoa_r+0x608>)
 8003d1a:	4640      	mov	r0, r8
 8003d1c:	4649      	mov	r1, r9
 8003d1e:	f7fc fc77 	bl	8000610 <__aeabi_dmul>
 8003d22:	2200      	movs	r2, #0
 8003d24:	4680      	mov	r8, r0
 8003d26:	4689      	mov	r9, r1
 8003d28:	4b2d      	ldr	r3, [pc, #180]	; (8003de0 <_dtoa_r+0x608>)
 8003d2a:	e9dd 0100 	ldrd	r0, r1, [sp]
 8003d2e:	f7fc fc6f 	bl	8000610 <__aeabi_dmul>
 8003d32:	e9cd 0100 	strd	r0, r1, [sp]
 8003d36:	e7c5      	b.n	8003cc4 <_dtoa_r+0x4ec>
 8003d38:	eb03 01c1 	add.w	r1, r3, r1, lsl #3
 8003d3c:	4642      	mov	r2, r8
 8003d3e:	464b      	mov	r3, r9
 8003d40:	e9d1 0100 	ldrd	r0, r1, [r1]
 8003d44:	f7fc fc64 	bl	8000610 <__aeabi_dmul>
 8003d48:	e9cd 0110 	strd	r0, r1, [sp, #64]	; 0x40
 8003d4c:	9d02      	ldr	r5, [sp, #8]
 8003d4e:	e9dd 0100 	ldrd	r0, r1, [sp]
 8003d52:	f7fc ff0d 	bl	8000b70 <__aeabi_d2iz>
 8003d56:	4606      	mov	r6, r0
 8003d58:	f7fc fbf4 	bl	8000544 <__aeabi_i2d>
 8003d5c:	3630      	adds	r6, #48	; 0x30
 8003d5e:	4602      	mov	r2, r0
 8003d60:	460b      	mov	r3, r1
 8003d62:	e9dd 0100 	ldrd	r0, r1, [sp]
 8003d66:	f7fc fa9f 	bl	80002a8 <__aeabi_dsub>
 8003d6a:	f805 6b01 	strb.w	r6, [r5], #1
 8003d6e:	9b13      	ldr	r3, [sp, #76]	; 0x4c
 8003d70:	42ab      	cmp	r3, r5
 8003d72:	4680      	mov	r8, r0
 8003d74:	4689      	mov	r9, r1
 8003d76:	f04f 0200 	mov.w	r2, #0
 8003d7a:	d125      	bne.n	8003dc8 <_dtoa_r+0x5f0>
 8003d7c:	4b1b      	ldr	r3, [pc, #108]	; (8003dec <_dtoa_r+0x614>)
 8003d7e:	e9dd 0110 	ldrd	r0, r1, [sp, #64]	; 0x40
 8003d82:	f7fc fa93 	bl	80002ac <__adddf3>
 8003d86:	4602      	mov	r2, r0
 8003d88:	460b      	mov	r3, r1
 8003d8a:	4640      	mov	r0, r8
 8003d8c:	4649      	mov	r1, r9
 8003d8e:	f7fc fecf 	bl	8000b30 <__aeabi_dcmpgt>
 8003d92:	2800      	cmp	r0, #0
 8003d94:	d175      	bne.n	8003e82 <_dtoa_r+0x6aa>
 8003d96:	e9dd 2310 	ldrd	r2, r3, [sp, #64]	; 0x40
 8003d9a:	2000      	movs	r0, #0
 8003d9c:	4913      	ldr	r1, [pc, #76]	; (8003dec <_dtoa_r+0x614>)
 8003d9e:	f7fc fa83 	bl	80002a8 <__aeabi_dsub>
 8003da2:	4602      	mov	r2, r0
 8003da4:	460b      	mov	r3, r1
 8003da6:	4640      	mov	r0, r8
 8003da8:	4649      	mov	r1, r9
 8003daa:	f7fc fea3 	bl	8000af4 <__aeabi_dcmplt>
 8003dae:	2800      	cmp	r0, #0
 8003db0:	f43f af2f 	beq.w	8003c12 <_dtoa_r+0x43a>
 8003db4:	f815 3c01 	ldrb.w	r3, [r5, #-1]
 8003db8:	2b30      	cmp	r3, #48	; 0x30
 8003dba:	f105 32ff 	add.w	r2, r5, #4294967295	; 0xffffffff
 8003dbe:	d001      	beq.n	8003dc4 <_dtoa_r+0x5ec>
 8003dc0:	46bb      	mov	fp, r7
 8003dc2:	e04d      	b.n	8003e60 <_dtoa_r+0x688>
 8003dc4:	4615      	mov	r5, r2
 8003dc6:	e7f5      	b.n	8003db4 <_dtoa_r+0x5dc>
 8003dc8:	4b05      	ldr	r3, [pc, #20]	; (8003de0 <_dtoa_r+0x608>)
 8003dca:	f7fc fc21 	bl	8000610 <__aeabi_dmul>
 8003dce:	e9cd 0100 	strd	r0, r1, [sp]
 8003dd2:	e7bc      	b.n	8003d4e <_dtoa_r+0x576>
 8003dd4:	08005588 	.word	0x08005588
 8003dd8:	08005560 	.word	0x08005560
 8003ddc:	3ff00000 	.word	0x3ff00000
 8003de0:	40240000 	.word	0x40240000
 8003de4:	401c0000 	.word	0x401c0000
 8003de8:	40140000 	.word	0x40140000
 8003dec:	3fe00000 	.word	0x3fe00000
 8003df0:	e9dd 6700 	ldrd	r6, r7, [sp]
 8003df4:	9d02      	ldr	r5, [sp, #8]
 8003df6:	4642      	mov	r2, r8
 8003df8:	464b      	mov	r3, r9
 8003dfa:	4630      	mov	r0, r6
 8003dfc:	4639      	mov	r1, r7
 8003dfe:	f7fc fd31 	bl	8000864 <__aeabi_ddiv>
 8003e02:	f7fc feb5 	bl	8000b70 <__aeabi_d2iz>
 8003e06:	9000      	str	r0, [sp, #0]
 8003e08:	f7fc fb9c 	bl	8000544 <__aeabi_i2d>
 8003e0c:	4642      	mov	r2, r8
 8003e0e:	464b      	mov	r3, r9
 8003e10:	f7fc fbfe 	bl	8000610 <__aeabi_dmul>
 8003e14:	4602      	mov	r2, r0
 8003e16:	460b      	mov	r3, r1
 8003e18:	4630      	mov	r0, r6
 8003e1a:	4639      	mov	r1, r7
 8003e1c:	f7fc fa44 	bl	80002a8 <__aeabi_dsub>
 8003e20:	9e00      	ldr	r6, [sp, #0]
 8003e22:	9f03      	ldr	r7, [sp, #12]
 8003e24:	3630      	adds	r6, #48	; 0x30
 8003e26:	f805 6b01 	strb.w	r6, [r5], #1
 8003e2a:	9e02      	ldr	r6, [sp, #8]
 8003e2c:	1bae      	subs	r6, r5, r6
 8003e2e:	42b7      	cmp	r7, r6
 8003e30:	4602      	mov	r2, r0
 8003e32:	460b      	mov	r3, r1
 8003e34:	d138      	bne.n	8003ea8 <_dtoa_r+0x6d0>
 8003e36:	f7fc fa39 	bl	80002ac <__adddf3>
 8003e3a:	4606      	mov	r6, r0
 8003e3c:	460f      	mov	r7, r1
 8003e3e:	4602      	mov	r2, r0
 8003e40:	460b      	mov	r3, r1
 8003e42:	4640      	mov	r0, r8
 8003e44:	4649      	mov	r1, r9
 8003e46:	f7fc fe55 	bl	8000af4 <__aeabi_dcmplt>
 8003e4a:	b9c8      	cbnz	r0, 8003e80 <_dtoa_r+0x6a8>
 8003e4c:	4632      	mov	r2, r6
 8003e4e:	463b      	mov	r3, r7
 8003e50:	4640      	mov	r0, r8
 8003e52:	4649      	mov	r1, r9
 8003e54:	f7fc fe44 	bl	8000ae0 <__aeabi_dcmpeq>
 8003e58:	b110      	cbz	r0, 8003e60 <_dtoa_r+0x688>
 8003e5a:	9b00      	ldr	r3, [sp, #0]
 8003e5c:	07db      	lsls	r3, r3, #31
 8003e5e:	d40f      	bmi.n	8003e80 <_dtoa_r+0x6a8>
 8003e60:	4651      	mov	r1, sl
 8003e62:	4620      	mov	r0, r4
 8003e64:	f000 fcf6 	bl	8004854 <_Bfree>
 8003e68:	2300      	movs	r3, #0
 8003e6a:	9a0f      	ldr	r2, [sp, #60]	; 0x3c
 8003e6c:	702b      	strb	r3, [r5, #0]
 8003e6e:	f10b 0301 	add.w	r3, fp, #1
 8003e72:	6013      	str	r3, [r2, #0]
 8003e74:	9b21      	ldr	r3, [sp, #132]	; 0x84
 8003e76:	2b00      	cmp	r3, #0
 8003e78:	f43f acf8 	beq.w	800386c <_dtoa_r+0x94>
 8003e7c:	601d      	str	r5, [r3, #0]
 8003e7e:	e4f5      	b.n	800386c <_dtoa_r+0x94>
 8003e80:	465f      	mov	r7, fp
 8003e82:	f815 2c01 	ldrb.w	r2, [r5, #-1]
 8003e86:	2a39      	cmp	r2, #57	; 0x39
 8003e88:	f105 33ff 	add.w	r3, r5, #4294967295	; 0xffffffff
 8003e8c:	d106      	bne.n	8003e9c <_dtoa_r+0x6c4>
 8003e8e:	9a02      	ldr	r2, [sp, #8]
 8003e90:	429a      	cmp	r2, r3
 8003e92:	d107      	bne.n	8003ea4 <_dtoa_r+0x6cc>
 8003e94:	2330      	movs	r3, #48	; 0x30
 8003e96:	7013      	strb	r3, [r2, #0]
 8003e98:	3701      	adds	r7, #1
 8003e9a:	4613      	mov	r3, r2
 8003e9c:	781a      	ldrb	r2, [r3, #0]
 8003e9e:	3201      	adds	r2, #1
 8003ea0:	701a      	strb	r2, [r3, #0]
 8003ea2:	e78d      	b.n	8003dc0 <_dtoa_r+0x5e8>
 8003ea4:	461d      	mov	r5, r3
 8003ea6:	e7ec      	b.n	8003e82 <_dtoa_r+0x6aa>
 8003ea8:	2200      	movs	r2, #0
 8003eaa:	4ba4      	ldr	r3, [pc, #656]	; (800413c <_dtoa_r+0x964>)
 8003eac:	f7fc fbb0 	bl	8000610 <__aeabi_dmul>
 8003eb0:	2200      	movs	r2, #0
 8003eb2:	2300      	movs	r3, #0
 8003eb4:	4606      	mov	r6, r0
 8003eb6:	460f      	mov	r7, r1
 8003eb8:	f7fc fe12 	bl	8000ae0 <__aeabi_dcmpeq>
 8003ebc:	2800      	cmp	r0, #0
 8003ebe:	d09a      	beq.n	8003df6 <_dtoa_r+0x61e>
 8003ec0:	e7ce      	b.n	8003e60 <_dtoa_r+0x688>
 8003ec2:	9a09      	ldr	r2, [sp, #36]	; 0x24
 8003ec4:	2a00      	cmp	r2, #0
 8003ec6:	f000 80cd 	beq.w	8004064 <_dtoa_r+0x88c>
 8003eca:	9a07      	ldr	r2, [sp, #28]
 8003ecc:	2a01      	cmp	r2, #1
 8003ece:	f300 80af 	bgt.w	8004030 <_dtoa_r+0x858>
 8003ed2:	9a12      	ldr	r2, [sp, #72]	; 0x48
 8003ed4:	2a00      	cmp	r2, #0
 8003ed6:	f000 80a7 	beq.w	8004028 <_dtoa_r+0x850>
 8003eda:	f203 4333 	addw	r3, r3, #1075	; 0x433
 8003ede:	9e08      	ldr	r6, [sp, #32]
 8003ee0:	9d05      	ldr	r5, [sp, #20]
 8003ee2:	9a05      	ldr	r2, [sp, #20]
 8003ee4:	441a      	add	r2, r3
 8003ee6:	9205      	str	r2, [sp, #20]
 8003ee8:	9a06      	ldr	r2, [sp, #24]
 8003eea:	2101      	movs	r1, #1
 8003eec:	441a      	add	r2, r3
 8003eee:	4620      	mov	r0, r4
 8003ef0:	9206      	str	r2, [sp, #24]
 8003ef2:	f000 fd4f 	bl	8004994 <__i2b>
 8003ef6:	4607      	mov	r7, r0
 8003ef8:	2d00      	cmp	r5, #0
 8003efa:	dd0c      	ble.n	8003f16 <_dtoa_r+0x73e>
 8003efc:	9b06      	ldr	r3, [sp, #24]
 8003efe:	2b00      	cmp	r3, #0
 8003f00:	dd09      	ble.n	8003f16 <_dtoa_r+0x73e>
 8003f02:	42ab      	cmp	r3, r5
 8003f04:	9a05      	ldr	r2, [sp, #20]
 8003f06:	bfa8      	it	ge
 8003f08:	462b      	movge	r3, r5
 8003f0a:	1ad2      	subs	r2, r2, r3
 8003f0c:	9205      	str	r2, [sp, #20]
 8003f0e:	9a06      	ldr	r2, [sp, #24]
 8003f10:	1aed      	subs	r5, r5, r3
 8003f12:	1ad3      	subs	r3, r2, r3
 8003f14:	9306      	str	r3, [sp, #24]
 8003f16:	9b08      	ldr	r3, [sp, #32]
 8003f18:	b1f3      	cbz	r3, 8003f58 <_dtoa_r+0x780>
 8003f1a:	9b09      	ldr	r3, [sp, #36]	; 0x24
 8003f1c:	2b00      	cmp	r3, #0
 8003f1e:	f000 80a5 	beq.w	800406c <_dtoa_r+0x894>
 8003f22:	2e00      	cmp	r6, #0
 8003f24:	dd10      	ble.n	8003f48 <_dtoa_r+0x770>
 8003f26:	4639      	mov	r1, r7
 8003f28:	4632      	mov	r2, r6
 8003f2a:	4620      	mov	r0, r4
 8003f2c:	f000 fdc8 	bl	8004ac0 <__pow5mult>
 8003f30:	4652      	mov	r2, sl
 8003f32:	4601      	mov	r1, r0
 8003f34:	4607      	mov	r7, r0
 8003f36:	4620      	mov	r0, r4
 8003f38:	f000 fd35 	bl	80049a6 <__multiply>
 8003f3c:	4651      	mov	r1, sl
 8003f3e:	4680      	mov	r8, r0
 8003f40:	4620      	mov	r0, r4
 8003f42:	f000 fc87 	bl	8004854 <_Bfree>
 8003f46:	46c2      	mov	sl, r8
 8003f48:	9b08      	ldr	r3, [sp, #32]
 8003f4a:	1b9a      	subs	r2, r3, r6
 8003f4c:	d004      	beq.n	8003f58 <_dtoa_r+0x780>
 8003f4e:	4651      	mov	r1, sl
 8003f50:	4620      	mov	r0, r4
 8003f52:	f000 fdb5 	bl	8004ac0 <__pow5mult>
 8003f56:	4682      	mov	sl, r0
 8003f58:	2101      	movs	r1, #1
 8003f5a:	4620      	mov	r0, r4
 8003f5c:	f000 fd1a 	bl	8004994 <__i2b>
 8003f60:	9b0b      	ldr	r3, [sp, #44]	; 0x2c
 8003f62:	2b00      	cmp	r3, #0
 8003f64:	4606      	mov	r6, r0
 8003f66:	f340 8083 	ble.w	8004070 <_dtoa_r+0x898>
 8003f6a:	461a      	mov	r2, r3
 8003f6c:	4601      	mov	r1, r0
 8003f6e:	4620      	mov	r0, r4
 8003f70:	f000 fda6 	bl	8004ac0 <__pow5mult>
 8003f74:	9b07      	ldr	r3, [sp, #28]
 8003f76:	2b01      	cmp	r3, #1
 8003f78:	4606      	mov	r6, r0
 8003f7a:	dd7c      	ble.n	8004076 <_dtoa_r+0x89e>
 8003f7c:	f04f 0800 	mov.w	r8, #0
 8003f80:	6933      	ldr	r3, [r6, #16]
 8003f82:	eb06 0383 	add.w	r3, r6, r3, lsl #2
 8003f86:	6918      	ldr	r0, [r3, #16]
 8003f88:	f000 fcb6 	bl	80048f8 <__hi0bits>
 8003f8c:	f1c0 0020 	rsb	r0, r0, #32
 8003f90:	9b06      	ldr	r3, [sp, #24]
 8003f92:	4418      	add	r0, r3
 8003f94:	f010 001f 	ands.w	r0, r0, #31
 8003f98:	f000 8096 	beq.w	80040c8 <_dtoa_r+0x8f0>
 8003f9c:	f1c0 0320 	rsb	r3, r0, #32
 8003fa0:	2b04      	cmp	r3, #4
 8003fa2:	f340 8087 	ble.w	80040b4 <_dtoa_r+0x8dc>
 8003fa6:	9b05      	ldr	r3, [sp, #20]
 8003fa8:	f1c0 001c 	rsb	r0, r0, #28
 8003fac:	4403      	add	r3, r0
 8003fae:	9305      	str	r3, [sp, #20]
 8003fb0:	9b06      	ldr	r3, [sp, #24]
 8003fb2:	4405      	add	r5, r0
 8003fb4:	4403      	add	r3, r0
 8003fb6:	9306      	str	r3, [sp, #24]
 8003fb8:	9b05      	ldr	r3, [sp, #20]
 8003fba:	2b00      	cmp	r3, #0
 8003fbc:	dd05      	ble.n	8003fca <_dtoa_r+0x7f2>
 8003fbe:	4651      	mov	r1, sl
 8003fc0:	461a      	mov	r2, r3
 8003fc2:	4620      	mov	r0, r4
 8003fc4:	f000 fdca 	bl	8004b5c <__lshift>
 8003fc8:	4682      	mov	sl, r0
 8003fca:	9b06      	ldr	r3, [sp, #24]
 8003fcc:	2b00      	cmp	r3, #0
 8003fce:	dd05      	ble.n	8003fdc <_dtoa_r+0x804>
 8003fd0:	4631      	mov	r1, r6
 8003fd2:	461a      	mov	r2, r3
 8003fd4:	4620      	mov	r0, r4
 8003fd6:	f000 fdc1 	bl	8004b5c <__lshift>
 8003fda:	4606      	mov	r6, r0
 8003fdc:	9b0e      	ldr	r3, [sp, #56]	; 0x38
 8003fde:	2b00      	cmp	r3, #0
 8003fe0:	d074      	beq.n	80040cc <_dtoa_r+0x8f4>
 8003fe2:	4631      	mov	r1, r6
 8003fe4:	4650      	mov	r0, sl
 8003fe6:	f000 fe0a 	bl	8004bfe <__mcmp>
 8003fea:	2800      	cmp	r0, #0
 8003fec:	da6e      	bge.n	80040cc <_dtoa_r+0x8f4>
 8003fee:	2300      	movs	r3, #0
 8003ff0:	4651      	mov	r1, sl
 8003ff2:	220a      	movs	r2, #10
 8003ff4:	4620      	mov	r0, r4
 8003ff6:	f000 fc44 	bl	8004882 <__multadd>
 8003ffa:	9b09      	ldr	r3, [sp, #36]	; 0x24
 8003ffc:	f10b 3bff 	add.w	fp, fp, #4294967295	; 0xffffffff
 8004000:	4682      	mov	sl, r0
 8004002:	2b00      	cmp	r3, #0
 8004004:	f000 81a8 	beq.w	8004358 <_dtoa_r+0xb80>
 8004008:	2300      	movs	r3, #0
 800400a:	4639      	mov	r1, r7
 800400c:	220a      	movs	r2, #10
 800400e:	4620      	mov	r0, r4
 8004010:	f000 fc37 	bl	8004882 <__multadd>
 8004014:	9b04      	ldr	r3, [sp, #16]
 8004016:	2b00      	cmp	r3, #0
 8004018:	4607      	mov	r7, r0
 800401a:	f300 80c8 	bgt.w	80041ae <_dtoa_r+0x9d6>
 800401e:	9b07      	ldr	r3, [sp, #28]
 8004020:	2b02      	cmp	r3, #2
 8004022:	f340 80c4 	ble.w	80041ae <_dtoa_r+0x9d6>
 8004026:	e059      	b.n	80040dc <_dtoa_r+0x904>
 8004028:	9b14      	ldr	r3, [sp, #80]	; 0x50
 800402a:	f1c3 0336 	rsb	r3, r3, #54	; 0x36
 800402e:	e756      	b.n	8003ede <_dtoa_r+0x706>
 8004030:	9b03      	ldr	r3, [sp, #12]
 8004032:	1e5e      	subs	r6, r3, #1
 8004034:	9b08      	ldr	r3, [sp, #32]
 8004036:	42b3      	cmp	r3, r6
 8004038:	bfbf      	itttt	lt
 800403a:	9b08      	ldrlt	r3, [sp, #32]
 800403c:	9608      	strlt	r6, [sp, #32]
 800403e:	1af2      	sublt	r2, r6, r3
 8004040:	9b0b      	ldrlt	r3, [sp, #44]	; 0x2c
 8004042:	bfb6      	itet	lt
 8004044:	189b      	addlt	r3, r3, r2
 8004046:	1b9e      	subge	r6, r3, r6
 8004048:	930b      	strlt	r3, [sp, #44]	; 0x2c
 800404a:	9b03      	ldr	r3, [sp, #12]
 800404c:	bfb8      	it	lt
 800404e:	2600      	movlt	r6, #0
 8004050:	2b00      	cmp	r3, #0
 8004052:	bfb9      	ittee	lt
 8004054:	9b05      	ldrlt	r3, [sp, #20]
 8004056:	9a03      	ldrlt	r2, [sp, #12]
 8004058:	9d05      	ldrge	r5, [sp, #20]
 800405a:	9b03      	ldrge	r3, [sp, #12]
 800405c:	bfbc      	itt	lt
 800405e:	1a9d      	sublt	r5, r3, r2
 8004060:	2300      	movlt	r3, #0
 8004062:	e73e      	b.n	8003ee2 <_dtoa_r+0x70a>
 8004064:	9e08      	ldr	r6, [sp, #32]
 8004066:	9d05      	ldr	r5, [sp, #20]
 8004068:	9f09      	ldr	r7, [sp, #36]	; 0x24
 800406a:	e745      	b.n	8003ef8 <_dtoa_r+0x720>
 800406c:	9a08      	ldr	r2, [sp, #32]
 800406e:	e76e      	b.n	8003f4e <_dtoa_r+0x776>
 8004070:	9b07      	ldr	r3, [sp, #28]
 8004072:	2b01      	cmp	r3, #1
 8004074:	dc19      	bgt.n	80040aa <_dtoa_r+0x8d2>
 8004076:	9b00      	ldr	r3, [sp, #0]
 8004078:	b9bb      	cbnz	r3, 80040aa <_dtoa_r+0x8d2>
 800407a:	9b01      	ldr	r3, [sp, #4]
 800407c:	f3c3 0313 	ubfx	r3, r3, #0, #20
 8004080:	b99b      	cbnz	r3, 80040aa <_dtoa_r+0x8d2>
 8004082:	9b01      	ldr	r3, [sp, #4]
 8004084:	f023 4300 	bic.w	r3, r3, #2147483648	; 0x80000000
 8004088:	0d1b      	lsrs	r3, r3, #20
 800408a:	051b      	lsls	r3, r3, #20
 800408c:	b183      	cbz	r3, 80040b0 <_dtoa_r+0x8d8>
 800408e:	9b05      	ldr	r3, [sp, #20]
 8004090:	3301      	adds	r3, #1
 8004092:	9305      	str	r3, [sp, #20]
 8004094:	9b06      	ldr	r3, [sp, #24]
 8004096:	3301      	adds	r3, #1
 8004098:	9306      	str	r3, [sp, #24]
 800409a:	f04f 0801 	mov.w	r8, #1
 800409e:	9b0b      	ldr	r3, [sp, #44]	; 0x2c
 80040a0:	2b00      	cmp	r3, #0
 80040a2:	f47f af6d 	bne.w	8003f80 <_dtoa_r+0x7a8>
 80040a6:	2001      	movs	r0, #1
 80040a8:	e772      	b.n	8003f90 <_dtoa_r+0x7b8>
 80040aa:	f04f 0800 	mov.w	r8, #0
 80040ae:	e7f6      	b.n	800409e <_dtoa_r+0x8c6>
 80040b0:	4698      	mov	r8, r3
 80040b2:	e7f4      	b.n	800409e <_dtoa_r+0x8c6>
 80040b4:	d080      	beq.n	8003fb8 <_dtoa_r+0x7e0>
 80040b6:	9a05      	ldr	r2, [sp, #20]
 80040b8:	331c      	adds	r3, #28
 80040ba:	441a      	add	r2, r3
 80040bc:	9205      	str	r2, [sp, #20]
 80040be:	9a06      	ldr	r2, [sp, #24]
 80040c0:	441a      	add	r2, r3
 80040c2:	441d      	add	r5, r3
 80040c4:	4613      	mov	r3, r2
 80040c6:	e776      	b.n	8003fb6 <_dtoa_r+0x7de>
 80040c8:	4603      	mov	r3, r0
 80040ca:	e7f4      	b.n	80040b6 <_dtoa_r+0x8de>
 80040cc:	9b03      	ldr	r3, [sp, #12]
 80040ce:	2b00      	cmp	r3, #0
 80040d0:	dc36      	bgt.n	8004140 <_dtoa_r+0x968>
 80040d2:	9b07      	ldr	r3, [sp, #28]
 80040d4:	2b02      	cmp	r3, #2
 80040d6:	dd33      	ble.n	8004140 <_dtoa_r+0x968>
 80040d8:	9b03      	ldr	r3, [sp, #12]
 80040da:	9304      	str	r3, [sp, #16]
 80040dc:	9b04      	ldr	r3, [sp, #16]
 80040de:	b963      	cbnz	r3, 80040fa <_dtoa_r+0x922>
 80040e0:	4631      	mov	r1, r6
 80040e2:	2205      	movs	r2, #5
 80040e4:	4620      	mov	r0, r4
 80040e6:	f000 fbcc 	bl	8004882 <__multadd>
 80040ea:	4601      	mov	r1, r0
 80040ec:	4606      	mov	r6, r0
 80040ee:	4650      	mov	r0, sl
 80040f0:	f000 fd85 	bl	8004bfe <__mcmp>
 80040f4:	2800      	cmp	r0, #0
 80040f6:	f73f adb6 	bgt.w	8003c66 <_dtoa_r+0x48e>
 80040fa:	9b0a      	ldr	r3, [sp, #40]	; 0x28
 80040fc:	9d02      	ldr	r5, [sp, #8]
 80040fe:	ea6f 0b03 	mvn.w	fp, r3
 8004102:	2300      	movs	r3, #0
 8004104:	9303      	str	r3, [sp, #12]
 8004106:	4631      	mov	r1, r6
 8004108:	4620      	mov	r0, r4
 800410a:	f000 fba3 	bl	8004854 <_Bfree>
 800410e:	2f00      	cmp	r7, #0
 8004110:	f43f aea6 	beq.w	8003e60 <_dtoa_r+0x688>
 8004114:	9b03      	ldr	r3, [sp, #12]
 8004116:	b12b      	cbz	r3, 8004124 <_dtoa_r+0x94c>
 8004118:	42bb      	cmp	r3, r7
 800411a:	d003      	beq.n	8004124 <_dtoa_r+0x94c>
 800411c:	4619      	mov	r1, r3
 800411e:	4620      	mov	r0, r4
 8004120:	f000 fb98 	bl	8004854 <_Bfree>
 8004124:	4639      	mov	r1, r7
 8004126:	4620      	mov	r0, r4
 8004128:	f000 fb94 	bl	8004854 <_Bfree>
 800412c:	e698      	b.n	8003e60 <_dtoa_r+0x688>
 800412e:	2600      	movs	r6, #0
 8004130:	4637      	mov	r7, r6
 8004132:	e7e2      	b.n	80040fa <_dtoa_r+0x922>
 8004134:	46bb      	mov	fp, r7
 8004136:	4637      	mov	r7, r6
 8004138:	e595      	b.n	8003c66 <_dtoa_r+0x48e>
 800413a:	bf00      	nop
 800413c:	40240000 	.word	0x40240000
 8004140:	9b09      	ldr	r3, [sp, #36]	; 0x24
 8004142:	bb93      	cbnz	r3, 80041aa <_dtoa_r+0x9d2>
 8004144:	9b03      	ldr	r3, [sp, #12]
 8004146:	9304      	str	r3, [sp, #16]
 8004148:	9d02      	ldr	r5, [sp, #8]
 800414a:	4631      	mov	r1, r6
 800414c:	4650      	mov	r0, sl
 800414e:	f7ff fab7 	bl	80036c0 <quorem>
 8004152:	f100 0930 	add.w	r9, r0, #48	; 0x30
 8004156:	f805 9b01 	strb.w	r9, [r5], #1
 800415a:	9b02      	ldr	r3, [sp, #8]
 800415c:	9a04      	ldr	r2, [sp, #16]
 800415e:	1aeb      	subs	r3, r5, r3
 8004160:	429a      	cmp	r2, r3
 8004162:	f300 80dc 	bgt.w	800431e <_dtoa_r+0xb46>
 8004166:	9b02      	ldr	r3, [sp, #8]
 8004168:	2a01      	cmp	r2, #1
 800416a:	bfac      	ite	ge
 800416c:	189b      	addge	r3, r3, r2
 800416e:	3301      	addlt	r3, #1
 8004170:	4698      	mov	r8, r3
 8004172:	2300      	movs	r3, #0
 8004174:	9303      	str	r3, [sp, #12]
 8004176:	4651      	mov	r1, sl
 8004178:	2201      	movs	r2, #1
 800417a:	4620      	mov	r0, r4
 800417c:	f000 fcee 	bl	8004b5c <__lshift>
 8004180:	4631      	mov	r1, r6
 8004182:	4682      	mov	sl, r0
 8004184:	f000 fd3b 	bl	8004bfe <__mcmp>
 8004188:	2800      	cmp	r0, #0
 800418a:	f300 808d 	bgt.w	80042a8 <_dtoa_r+0xad0>
 800418e:	d103      	bne.n	8004198 <_dtoa_r+0x9c0>
 8004190:	f019 0f01 	tst.w	r9, #1
 8004194:	f040 8088 	bne.w	80042a8 <_dtoa_r+0xad0>
 8004198:	4645      	mov	r5, r8
 800419a:	f815 3c01 	ldrb.w	r3, [r5, #-1]
 800419e:	2b30      	cmp	r3, #48	; 0x30
 80041a0:	f105 32ff 	add.w	r2, r5, #4294967295	; 0xffffffff
 80041a4:	d1af      	bne.n	8004106 <_dtoa_r+0x92e>
 80041a6:	4615      	mov	r5, r2
 80041a8:	e7f7      	b.n	800419a <_dtoa_r+0x9c2>
 80041aa:	9b03      	ldr	r3, [sp, #12]
 80041ac:	9304      	str	r3, [sp, #16]
 80041ae:	2d00      	cmp	r5, #0
 80041b0:	dd05      	ble.n	80041be <_dtoa_r+0x9e6>
 80041b2:	4639      	mov	r1, r7
 80041b4:	462a      	mov	r2, r5
 80041b6:	4620      	mov	r0, r4
 80041b8:	f000 fcd0 	bl	8004b5c <__lshift>
 80041bc:	4607      	mov	r7, r0
 80041be:	f1b8 0f00 	cmp.w	r8, #0
 80041c2:	d04c      	beq.n	800425e <_dtoa_r+0xa86>
 80041c4:	6879      	ldr	r1, [r7, #4]
 80041c6:	4620      	mov	r0, r4
 80041c8:	f000 fb10 	bl	80047ec <_Balloc>
 80041cc:	693a      	ldr	r2, [r7, #16]
 80041ce:	3202      	adds	r2, #2
 80041d0:	4605      	mov	r5, r0
 80041d2:	0092      	lsls	r2, r2, #2
 80041d4:	f107 010c 	add.w	r1, r7, #12
 80041d8:	300c      	adds	r0, #12
 80041da:	f000 faef 	bl	80047bc <memcpy>
 80041de:	2201      	movs	r2, #1
 80041e0:	4629      	mov	r1, r5
 80041e2:	4620      	mov	r0, r4
 80041e4:	f000 fcba 	bl	8004b5c <__lshift>
 80041e8:	9b00      	ldr	r3, [sp, #0]
 80041ea:	f8dd 8008 	ldr.w	r8, [sp, #8]
 80041ee:	9703      	str	r7, [sp, #12]
 80041f0:	f003 0301 	and.w	r3, r3, #1
 80041f4:	4607      	mov	r7, r0
 80041f6:	9305      	str	r3, [sp, #20]
 80041f8:	4631      	mov	r1, r6
 80041fa:	4650      	mov	r0, sl
 80041fc:	f7ff fa60 	bl	80036c0 <quorem>
 8004200:	9903      	ldr	r1, [sp, #12]
 8004202:	4605      	mov	r5, r0
 8004204:	f100 0930 	add.w	r9, r0, #48	; 0x30
 8004208:	4650      	mov	r0, sl
 800420a:	f000 fcf8 	bl	8004bfe <__mcmp>
 800420e:	463a      	mov	r2, r7
 8004210:	9000      	str	r0, [sp, #0]
 8004212:	4631      	mov	r1, r6
 8004214:	4620      	mov	r0, r4
 8004216:	f000 fd0c 	bl	8004c32 <__mdiff>
 800421a:	68c3      	ldr	r3, [r0, #12]
 800421c:	4602      	mov	r2, r0
 800421e:	bb03      	cbnz	r3, 8004262 <_dtoa_r+0xa8a>
 8004220:	4601      	mov	r1, r0
 8004222:	9006      	str	r0, [sp, #24]
 8004224:	4650      	mov	r0, sl
 8004226:	f000 fcea 	bl	8004bfe <__mcmp>
 800422a:	9a06      	ldr	r2, [sp, #24]
 800422c:	4603      	mov	r3, r0
 800422e:	4611      	mov	r1, r2
 8004230:	4620      	mov	r0, r4
 8004232:	9306      	str	r3, [sp, #24]
 8004234:	f000 fb0e 	bl	8004854 <_Bfree>
 8004238:	9b06      	ldr	r3, [sp, #24]
 800423a:	b9a3      	cbnz	r3, 8004266 <_dtoa_r+0xa8e>
 800423c:	9a07      	ldr	r2, [sp, #28]
 800423e:	b992      	cbnz	r2, 8004266 <_dtoa_r+0xa8e>
 8004240:	9a05      	ldr	r2, [sp, #20]
 8004242:	b982      	cbnz	r2, 8004266 <_dtoa_r+0xa8e>
 8004244:	f1b9 0f39 	cmp.w	r9, #57	; 0x39
 8004248:	d029      	beq.n	800429e <_dtoa_r+0xac6>
 800424a:	9b00      	ldr	r3, [sp, #0]
 800424c:	2b00      	cmp	r3, #0
 800424e:	dd01      	ble.n	8004254 <_dtoa_r+0xa7c>
 8004250:	f105 0931 	add.w	r9, r5, #49	; 0x31
 8004254:	f108 0501 	add.w	r5, r8, #1
 8004258:	f888 9000 	strb.w	r9, [r8]
 800425c:	e753      	b.n	8004106 <_dtoa_r+0x92e>
 800425e:	4638      	mov	r0, r7
 8004260:	e7c2      	b.n	80041e8 <_dtoa_r+0xa10>
 8004262:	2301      	movs	r3, #1
 8004264:	e7e3      	b.n	800422e <_dtoa_r+0xa56>
 8004266:	9a00      	ldr	r2, [sp, #0]
 8004268:	2a00      	cmp	r2, #0
 800426a:	db04      	blt.n	8004276 <_dtoa_r+0xa9e>
 800426c:	d125      	bne.n	80042ba <_dtoa_r+0xae2>
 800426e:	9a07      	ldr	r2, [sp, #28]
 8004270:	bb1a      	cbnz	r2, 80042ba <_dtoa_r+0xae2>
 8004272:	9a05      	ldr	r2, [sp, #20]
 8004274:	bb0a      	cbnz	r2, 80042ba <_dtoa_r+0xae2>
 8004276:	2b00      	cmp	r3, #0
 8004278:	ddec      	ble.n	8004254 <_dtoa_r+0xa7c>
 800427a:	4651      	mov	r1, sl
 800427c:	2201      	movs	r2, #1
 800427e:	4620      	mov	r0, r4
 8004280:	f000 fc6c 	bl	8004b5c <__lshift>
 8004284:	4631      	mov	r1, r6
 8004286:	4682      	mov	sl, r0
 8004288:	f000 fcb9 	bl	8004bfe <__mcmp>
 800428c:	2800      	cmp	r0, #0
 800428e:	dc03      	bgt.n	8004298 <_dtoa_r+0xac0>
 8004290:	d1e0      	bne.n	8004254 <_dtoa_r+0xa7c>
 8004292:	f019 0f01 	tst.w	r9, #1
 8004296:	d0dd      	beq.n	8004254 <_dtoa_r+0xa7c>
 8004298:	f1b9 0f39 	cmp.w	r9, #57	; 0x39
 800429c:	d1d8      	bne.n	8004250 <_dtoa_r+0xa78>
 800429e:	2339      	movs	r3, #57	; 0x39
 80042a0:	f888 3000 	strb.w	r3, [r8]
 80042a4:	f108 0801 	add.w	r8, r8, #1
 80042a8:	4645      	mov	r5, r8
 80042aa:	f815 3c01 	ldrb.w	r3, [r5, #-1]
 80042ae:	2b39      	cmp	r3, #57	; 0x39
 80042b0:	f105 32ff 	add.w	r2, r5, #4294967295	; 0xffffffff
 80042b4:	d03b      	beq.n	800432e <_dtoa_r+0xb56>
 80042b6:	3301      	adds	r3, #1
 80042b8:	e040      	b.n	800433c <_dtoa_r+0xb64>
 80042ba:	2b00      	cmp	r3, #0
 80042bc:	f108 0501 	add.w	r5, r8, #1
 80042c0:	dd05      	ble.n	80042ce <_dtoa_r+0xaf6>
 80042c2:	f1b9 0f39 	cmp.w	r9, #57	; 0x39
 80042c6:	d0ea      	beq.n	800429e <_dtoa_r+0xac6>
 80042c8:	f109 0901 	add.w	r9, r9, #1
 80042cc:	e7c4      	b.n	8004258 <_dtoa_r+0xa80>
 80042ce:	9b02      	ldr	r3, [sp, #8]
 80042d0:	9a04      	ldr	r2, [sp, #16]
 80042d2:	f805 9c01 	strb.w	r9, [r5, #-1]
 80042d6:	1aeb      	subs	r3, r5, r3
 80042d8:	4293      	cmp	r3, r2
 80042da:	46a8      	mov	r8, r5
 80042dc:	f43f af4b 	beq.w	8004176 <_dtoa_r+0x99e>
 80042e0:	4651      	mov	r1, sl
 80042e2:	2300      	movs	r3, #0
 80042e4:	220a      	movs	r2, #10
 80042e6:	4620      	mov	r0, r4
 80042e8:	f000 facb 	bl	8004882 <__multadd>
 80042ec:	9b03      	ldr	r3, [sp, #12]
 80042ee:	9903      	ldr	r1, [sp, #12]
 80042f0:	42bb      	cmp	r3, r7
 80042f2:	4682      	mov	sl, r0
 80042f4:	f04f 0300 	mov.w	r3, #0
 80042f8:	f04f 020a 	mov.w	r2, #10
 80042fc:	4620      	mov	r0, r4
 80042fe:	d104      	bne.n	800430a <_dtoa_r+0xb32>
 8004300:	f000 fabf 	bl	8004882 <__multadd>
 8004304:	9003      	str	r0, [sp, #12]
 8004306:	4607      	mov	r7, r0
 8004308:	e776      	b.n	80041f8 <_dtoa_r+0xa20>
 800430a:	f000 faba 	bl	8004882 <__multadd>
 800430e:	2300      	movs	r3, #0
 8004310:	9003      	str	r0, [sp, #12]
 8004312:	220a      	movs	r2, #10
 8004314:	4639      	mov	r1, r7
 8004316:	4620      	mov	r0, r4
 8004318:	f000 fab3 	bl	8004882 <__multadd>
 800431c:	e7f3      	b.n	8004306 <_dtoa_r+0xb2e>
 800431e:	4651      	mov	r1, sl
 8004320:	2300      	movs	r3, #0
 8004322:	220a      	movs	r2, #10
 8004324:	4620      	mov	r0, r4
 8004326:	f000 faac 	bl	8004882 <__multadd>
 800432a:	4682      	mov	sl, r0
 800432c:	e70d      	b.n	800414a <_dtoa_r+0x972>
 800432e:	9b02      	ldr	r3, [sp, #8]
 8004330:	4293      	cmp	r3, r2
 8004332:	d105      	bne.n	8004340 <_dtoa_r+0xb68>
 8004334:	9a02      	ldr	r2, [sp, #8]
 8004336:	f10b 0b01 	add.w	fp, fp, #1
 800433a:	2331      	movs	r3, #49	; 0x31
 800433c:	7013      	strb	r3, [r2, #0]
 800433e:	e6e2      	b.n	8004106 <_dtoa_r+0x92e>
 8004340:	4615      	mov	r5, r2
 8004342:	e7b2      	b.n	80042aa <_dtoa_r+0xad2>
 8004344:	4b09      	ldr	r3, [pc, #36]	; (800436c <_dtoa_r+0xb94>)
 8004346:	f7ff baae 	b.w	80038a6 <_dtoa_r+0xce>
 800434a:	9b21      	ldr	r3, [sp, #132]	; 0x84
 800434c:	2b00      	cmp	r3, #0
 800434e:	f47f aa88 	bne.w	8003862 <_dtoa_r+0x8a>
 8004352:	4b07      	ldr	r3, [pc, #28]	; (8004370 <_dtoa_r+0xb98>)
 8004354:	f7ff baa7 	b.w	80038a6 <_dtoa_r+0xce>
 8004358:	9b04      	ldr	r3, [sp, #16]
 800435a:	2b00      	cmp	r3, #0
 800435c:	f73f aef4 	bgt.w	8004148 <_dtoa_r+0x970>
 8004360:	9b07      	ldr	r3, [sp, #28]
 8004362:	2b02      	cmp	r3, #2
 8004364:	f77f aef0 	ble.w	8004148 <_dtoa_r+0x970>
 8004368:	e6b8      	b.n	80040dc <_dtoa_r+0x904>
 800436a:	bf00      	nop
 800436c:	0800552f 	.word	0x0800552f
 8004370:	08005551 	.word	0x08005551

08004374 <_localeconv_r>:
 8004374:	4b04      	ldr	r3, [pc, #16]	; (8004388 <_localeconv_r+0x14>)
 8004376:	681b      	ldr	r3, [r3, #0]
 8004378:	6a18      	ldr	r0, [r3, #32]
 800437a:	4b04      	ldr	r3, [pc, #16]	; (800438c <_localeconv_r+0x18>)
 800437c:	2800      	cmp	r0, #0
 800437e:	bf08      	it	eq
 8004380:	4618      	moveq	r0, r3
 8004382:	30f0      	adds	r0, #240	; 0xf0
 8004384:	4770      	bx	lr
 8004386:	bf00      	nop
 8004388:	2000009c 	.word	0x2000009c
 800438c:	200005a0 	.word	0x200005a0

08004390 <malloc>:
 8004390:	4b02      	ldr	r3, [pc, #8]	; (800439c <malloc+0xc>)
 8004392:	4601      	mov	r1, r0
 8004394:	6818      	ldr	r0, [r3, #0]
 8004396:	f000 b803 	b.w	80043a0 <_malloc_r>
 800439a:	bf00      	nop
 800439c:	2000009c 	.word	0x2000009c

080043a0 <_malloc_r>:
 80043a0:	e92d 4ff7 	stmdb	sp!, {r0, r1, r2, r4, r5, r6, r7, r8, r9, sl, fp, lr}
 80043a4:	f101 040b 	add.w	r4, r1, #11
 80043a8:	2c16      	cmp	r4, #22
 80043aa:	4681      	mov	r9, r0
 80043ac:	d907      	bls.n	80043be <_malloc_r+0x1e>
 80043ae:	f034 0407 	bics.w	r4, r4, #7
 80043b2:	d505      	bpl.n	80043c0 <_malloc_r+0x20>
 80043b4:	230c      	movs	r3, #12
 80043b6:	f8c9 3000 	str.w	r3, [r9]
 80043ba:	2600      	movs	r6, #0
 80043bc:	e131      	b.n	8004622 <_malloc_r+0x282>
 80043be:	2410      	movs	r4, #16
 80043c0:	428c      	cmp	r4, r1
 80043c2:	d3f7      	bcc.n	80043b4 <_malloc_r+0x14>
 80043c4:	4648      	mov	r0, r9
 80043c6:	f000 fa05 	bl	80047d4 <__malloc_lock>
 80043ca:	f5b4 7ffc 	cmp.w	r4, #504	; 0x1f8
 80043ce:	4d9c      	ldr	r5, [pc, #624]	; (8004640 <_malloc_r+0x2a0>)
 80043d0:	d236      	bcs.n	8004440 <_malloc_r+0xa0>
 80043d2:	f104 0208 	add.w	r2, r4, #8
 80043d6:	442a      	add	r2, r5
 80043d8:	f1a2 0108 	sub.w	r1, r2, #8
 80043dc:	6856      	ldr	r6, [r2, #4]
 80043de:	428e      	cmp	r6, r1
 80043e0:	ea4f 03d4 	mov.w	r3, r4, lsr #3
 80043e4:	d102      	bne.n	80043ec <_malloc_r+0x4c>
 80043e6:	68d6      	ldr	r6, [r2, #12]
 80043e8:	42b2      	cmp	r2, r6
 80043ea:	d010      	beq.n	800440e <_malloc_r+0x6e>
 80043ec:	6873      	ldr	r3, [r6, #4]
 80043ee:	68f2      	ldr	r2, [r6, #12]
 80043f0:	68b1      	ldr	r1, [r6, #8]
 80043f2:	f023 0303 	bic.w	r3, r3, #3
 80043f6:	60ca      	str	r2, [r1, #12]
 80043f8:	4433      	add	r3, r6
 80043fa:	6091      	str	r1, [r2, #8]
 80043fc:	685a      	ldr	r2, [r3, #4]
 80043fe:	f042 0201 	orr.w	r2, r2, #1
 8004402:	605a      	str	r2, [r3, #4]
 8004404:	4648      	mov	r0, r9
 8004406:	f000 f9eb 	bl	80047e0 <__malloc_unlock>
 800440a:	3608      	adds	r6, #8
 800440c:	e109      	b.n	8004622 <_malloc_r+0x282>
 800440e:	3302      	adds	r3, #2
 8004410:	4a8c      	ldr	r2, [pc, #560]	; (8004644 <_malloc_r+0x2a4>)
 8004412:	692e      	ldr	r6, [r5, #16]
 8004414:	4296      	cmp	r6, r2
 8004416:	4611      	mov	r1, r2
 8004418:	d06d      	beq.n	80044f6 <_malloc_r+0x156>
 800441a:	6870      	ldr	r0, [r6, #4]
 800441c:	f020 0003 	bic.w	r0, r0, #3
 8004420:	1b07      	subs	r7, r0, r4
 8004422:	2f0f      	cmp	r7, #15
 8004424:	dd47      	ble.n	80044b6 <_malloc_r+0x116>
 8004426:	1933      	adds	r3, r6, r4
 8004428:	f044 0401 	orr.w	r4, r4, #1
 800442c:	6074      	str	r4, [r6, #4]
 800442e:	616b      	str	r3, [r5, #20]
 8004430:	612b      	str	r3, [r5, #16]
 8004432:	60da      	str	r2, [r3, #12]
 8004434:	609a      	str	r2, [r3, #8]
 8004436:	f047 0201 	orr.w	r2, r7, #1
 800443a:	605a      	str	r2, [r3, #4]
 800443c:	5037      	str	r7, [r6, r0]
 800443e:	e7e1      	b.n	8004404 <_malloc_r+0x64>
 8004440:	0a63      	lsrs	r3, r4, #9
 8004442:	d02a      	beq.n	800449a <_malloc_r+0xfa>
 8004444:	2b04      	cmp	r3, #4
 8004446:	d812      	bhi.n	800446e <_malloc_r+0xce>
 8004448:	09a3      	lsrs	r3, r4, #6
 800444a:	3338      	adds	r3, #56	; 0x38
 800444c:	1c5a      	adds	r2, r3, #1
 800444e:	eb05 02c2 	add.w	r2, r5, r2, lsl #3
 8004452:	f1a2 0008 	sub.w	r0, r2, #8
 8004456:	6856      	ldr	r6, [r2, #4]
 8004458:	4286      	cmp	r6, r0
 800445a:	d006      	beq.n	800446a <_malloc_r+0xca>
 800445c:	6872      	ldr	r2, [r6, #4]
 800445e:	f022 0203 	bic.w	r2, r2, #3
 8004462:	1b11      	subs	r1, r2, r4
 8004464:	290f      	cmp	r1, #15
 8004466:	dd1c      	ble.n	80044a2 <_malloc_r+0x102>
 8004468:	3b01      	subs	r3, #1
 800446a:	3301      	adds	r3, #1
 800446c:	e7d0      	b.n	8004410 <_malloc_r+0x70>
 800446e:	2b14      	cmp	r3, #20
 8004470:	d801      	bhi.n	8004476 <_malloc_r+0xd6>
 8004472:	335b      	adds	r3, #91	; 0x5b
 8004474:	e7ea      	b.n	800444c <_malloc_r+0xac>
 8004476:	2b54      	cmp	r3, #84	; 0x54
 8004478:	d802      	bhi.n	8004480 <_malloc_r+0xe0>
 800447a:	0b23      	lsrs	r3, r4, #12
 800447c:	336e      	adds	r3, #110	; 0x6e
 800447e:	e7e5      	b.n	800444c <_malloc_r+0xac>
 8004480:	f5b3 7faa 	cmp.w	r3, #340	; 0x154
 8004484:	d802      	bhi.n	800448c <_malloc_r+0xec>
 8004486:	0be3      	lsrs	r3, r4, #15
 8004488:	3377      	adds	r3, #119	; 0x77
 800448a:	e7df      	b.n	800444c <_malloc_r+0xac>
 800448c:	f240 5254 	movw	r2, #1364	; 0x554
 8004490:	4293      	cmp	r3, r2
 8004492:	d804      	bhi.n	800449e <_malloc_r+0xfe>
 8004494:	0ca3      	lsrs	r3, r4, #18
 8004496:	337c      	adds	r3, #124	; 0x7c
 8004498:	e7d8      	b.n	800444c <_malloc_r+0xac>
 800449a:	233f      	movs	r3, #63	; 0x3f
 800449c:	e7d6      	b.n	800444c <_malloc_r+0xac>
 800449e:	237e      	movs	r3, #126	; 0x7e
 80044a0:	e7d4      	b.n	800444c <_malloc_r+0xac>
 80044a2:	2900      	cmp	r1, #0
 80044a4:	68f1      	ldr	r1, [r6, #12]
 80044a6:	db04      	blt.n	80044b2 <_malloc_r+0x112>
 80044a8:	68b3      	ldr	r3, [r6, #8]
 80044aa:	60d9      	str	r1, [r3, #12]
 80044ac:	608b      	str	r3, [r1, #8]
 80044ae:	18b3      	adds	r3, r6, r2
 80044b0:	e7a4      	b.n	80043fc <_malloc_r+0x5c>
 80044b2:	460e      	mov	r6, r1
 80044b4:	e7d0      	b.n	8004458 <_malloc_r+0xb8>
 80044b6:	2f00      	cmp	r7, #0
 80044b8:	616a      	str	r2, [r5, #20]
 80044ba:	612a      	str	r2, [r5, #16]
 80044bc:	db05      	blt.n	80044ca <_malloc_r+0x12a>
 80044be:	4430      	add	r0, r6
 80044c0:	6843      	ldr	r3, [r0, #4]
 80044c2:	f043 0301 	orr.w	r3, r3, #1
 80044c6:	6043      	str	r3, [r0, #4]
 80044c8:	e79c      	b.n	8004404 <_malloc_r+0x64>
 80044ca:	f5b0 7f00 	cmp.w	r0, #512	; 0x200
 80044ce:	d244      	bcs.n	800455a <_malloc_r+0x1ba>
 80044d0:	08c0      	lsrs	r0, r0, #3
 80044d2:	1087      	asrs	r7, r0, #2
 80044d4:	2201      	movs	r2, #1
 80044d6:	fa02 f707 	lsl.w	r7, r2, r7
 80044da:	686a      	ldr	r2, [r5, #4]
 80044dc:	3001      	adds	r0, #1
 80044de:	433a      	orrs	r2, r7
 80044e0:	606a      	str	r2, [r5, #4]
 80044e2:	eb05 02c0 	add.w	r2, r5, r0, lsl #3
 80044e6:	f855 7030 	ldr.w	r7, [r5, r0, lsl #3]
 80044ea:	60b7      	str	r7, [r6, #8]
 80044ec:	3a08      	subs	r2, #8
 80044ee:	60f2      	str	r2, [r6, #12]
 80044f0:	f845 6030 	str.w	r6, [r5, r0, lsl #3]
 80044f4:	60fe      	str	r6, [r7, #12]
 80044f6:	2001      	movs	r0, #1
 80044f8:	109a      	asrs	r2, r3, #2
 80044fa:	fa00 f202 	lsl.w	r2, r0, r2
 80044fe:	6868      	ldr	r0, [r5, #4]
 8004500:	4282      	cmp	r2, r0
 8004502:	f200 80a1 	bhi.w	8004648 <_malloc_r+0x2a8>
 8004506:	4202      	tst	r2, r0
 8004508:	d106      	bne.n	8004518 <_malloc_r+0x178>
 800450a:	f023 0303 	bic.w	r3, r3, #3
 800450e:	0052      	lsls	r2, r2, #1
 8004510:	4202      	tst	r2, r0
 8004512:	f103 0304 	add.w	r3, r3, #4
 8004516:	d0fa      	beq.n	800450e <_malloc_r+0x16e>
 8004518:	eb05 0cc3 	add.w	ip, r5, r3, lsl #3
 800451c:	46e0      	mov	r8, ip
 800451e:	469e      	mov	lr, r3
 8004520:	f8d8 600c 	ldr.w	r6, [r8, #12]
 8004524:	4546      	cmp	r6, r8
 8004526:	d153      	bne.n	80045d0 <_malloc_r+0x230>
 8004528:	f10e 0e01 	add.w	lr, lr, #1
 800452c:	f01e 0f03 	tst.w	lr, #3
 8004530:	f108 0808 	add.w	r8, r8, #8
 8004534:	d1f4      	bne.n	8004520 <_malloc_r+0x180>
 8004536:	0798      	lsls	r0, r3, #30
 8004538:	d179      	bne.n	800462e <_malloc_r+0x28e>
 800453a:	686b      	ldr	r3, [r5, #4]
 800453c:	ea23 0302 	bic.w	r3, r3, r2
 8004540:	606b      	str	r3, [r5, #4]
 8004542:	6868      	ldr	r0, [r5, #4]
 8004544:	0052      	lsls	r2, r2, #1
 8004546:	4282      	cmp	r2, r0
 8004548:	d87e      	bhi.n	8004648 <_malloc_r+0x2a8>
 800454a:	2a00      	cmp	r2, #0
 800454c:	d07c      	beq.n	8004648 <_malloc_r+0x2a8>
 800454e:	4673      	mov	r3, lr
 8004550:	4202      	tst	r2, r0
 8004552:	d1e1      	bne.n	8004518 <_malloc_r+0x178>
 8004554:	3304      	adds	r3, #4
 8004556:	0052      	lsls	r2, r2, #1
 8004558:	e7fa      	b.n	8004550 <_malloc_r+0x1b0>
 800455a:	0a42      	lsrs	r2, r0, #9
 800455c:	2a04      	cmp	r2, #4
 800455e:	d815      	bhi.n	800458c <_malloc_r+0x1ec>
 8004560:	0982      	lsrs	r2, r0, #6
 8004562:	3238      	adds	r2, #56	; 0x38
 8004564:	1c57      	adds	r7, r2, #1
 8004566:	eb05 0ec2 	add.w	lr, r5, r2, lsl #3
 800456a:	f855 7037 	ldr.w	r7, [r5, r7, lsl #3]
 800456e:	45be      	cmp	lr, r7
 8004570:	d126      	bne.n	80045c0 <_malloc_r+0x220>
 8004572:	2001      	movs	r0, #1
 8004574:	1092      	asrs	r2, r2, #2
 8004576:	fa00 f202 	lsl.w	r2, r0, r2
 800457a:	6868      	ldr	r0, [r5, #4]
 800457c:	4310      	orrs	r0, r2
 800457e:	6068      	str	r0, [r5, #4]
 8004580:	f8c6 e00c 	str.w	lr, [r6, #12]
 8004584:	60b7      	str	r7, [r6, #8]
 8004586:	f8ce 6008 	str.w	r6, [lr, #8]
 800458a:	e7b3      	b.n	80044f4 <_malloc_r+0x154>
 800458c:	2a14      	cmp	r2, #20
 800458e:	d801      	bhi.n	8004594 <_malloc_r+0x1f4>
 8004590:	325b      	adds	r2, #91	; 0x5b
 8004592:	e7e7      	b.n	8004564 <_malloc_r+0x1c4>
 8004594:	2a54      	cmp	r2, #84	; 0x54
 8004596:	d802      	bhi.n	800459e <_malloc_r+0x1fe>
 8004598:	0b02      	lsrs	r2, r0, #12
 800459a:	326e      	adds	r2, #110	; 0x6e
 800459c:	e7e2      	b.n	8004564 <_malloc_r+0x1c4>
 800459e:	f5b2 7faa 	cmp.w	r2, #340	; 0x154
 80045a2:	d802      	bhi.n	80045aa <_malloc_r+0x20a>
 80045a4:	0bc2      	lsrs	r2, r0, #15
 80045a6:	3277      	adds	r2, #119	; 0x77
 80045a8:	e7dc      	b.n	8004564 <_malloc_r+0x1c4>
 80045aa:	f240 5754 	movw	r7, #1364	; 0x554
 80045ae:	42ba      	cmp	r2, r7
 80045b0:	bf9a      	itte	ls
 80045b2:	0c82      	lsrls	r2, r0, #18
 80045b4:	327c      	addls	r2, #124	; 0x7c
 80045b6:	227e      	movhi	r2, #126	; 0x7e
 80045b8:	e7d4      	b.n	8004564 <_malloc_r+0x1c4>
 80045ba:	68bf      	ldr	r7, [r7, #8]
 80045bc:	45be      	cmp	lr, r7
 80045be:	d004      	beq.n	80045ca <_malloc_r+0x22a>
 80045c0:	687a      	ldr	r2, [r7, #4]
 80045c2:	f022 0203 	bic.w	r2, r2, #3
 80045c6:	4290      	cmp	r0, r2
 80045c8:	d3f7      	bcc.n	80045ba <_malloc_r+0x21a>
 80045ca:	f8d7 e00c 	ldr.w	lr, [r7, #12]
 80045ce:	e7d7      	b.n	8004580 <_malloc_r+0x1e0>
 80045d0:	6870      	ldr	r0, [r6, #4]
 80045d2:	68f7      	ldr	r7, [r6, #12]
 80045d4:	f020 0003 	bic.w	r0, r0, #3
 80045d8:	eba0 0a04 	sub.w	sl, r0, r4
 80045dc:	f1ba 0f0f 	cmp.w	sl, #15
 80045e0:	dd10      	ble.n	8004604 <_malloc_r+0x264>
 80045e2:	68b2      	ldr	r2, [r6, #8]
 80045e4:	1933      	adds	r3, r6, r4
 80045e6:	f044 0401 	orr.w	r4, r4, #1
 80045ea:	6074      	str	r4, [r6, #4]
 80045ec:	60d7      	str	r7, [r2, #12]
 80045ee:	60ba      	str	r2, [r7, #8]
 80045f0:	f04a 0201 	orr.w	r2, sl, #1
 80045f4:	616b      	str	r3, [r5, #20]
 80045f6:	612b      	str	r3, [r5, #16]
 80045f8:	60d9      	str	r1, [r3, #12]
 80045fa:	6099      	str	r1, [r3, #8]
 80045fc:	605a      	str	r2, [r3, #4]
 80045fe:	f846 a000 	str.w	sl, [r6, r0]
 8004602:	e6ff      	b.n	8004404 <_malloc_r+0x64>
 8004604:	f1ba 0f00 	cmp.w	sl, #0
 8004608:	db0f      	blt.n	800462a <_malloc_r+0x28a>
 800460a:	4430      	add	r0, r6
 800460c:	6843      	ldr	r3, [r0, #4]
 800460e:	f043 0301 	orr.w	r3, r3, #1
 8004612:	6043      	str	r3, [r0, #4]
 8004614:	f856 3f08 	ldr.w	r3, [r6, #8]!
 8004618:	4648      	mov	r0, r9
 800461a:	60df      	str	r7, [r3, #12]
 800461c:	60bb      	str	r3, [r7, #8]
 800461e:	f000 f8df 	bl	80047e0 <__malloc_unlock>
 8004622:	4630      	mov	r0, r6
 8004624:	b003      	add	sp, #12
 8004626:	e8bd 8ff0 	ldmia.w	sp!, {r4, r5, r6, r7, r8, r9, sl, fp, pc}
 800462a:	463e      	mov	r6, r7
 800462c:	e77a      	b.n	8004524 <_malloc_r+0x184>
 800462e:	f85c 0908 	ldr.w	r0, [ip], #-8
 8004632:	4584      	cmp	ip, r0
 8004634:	f103 33ff 	add.w	r3, r3, #4294967295	; 0xffffffff
 8004638:	f43f af7d 	beq.w	8004536 <_malloc_r+0x196>
 800463c:	e781      	b.n	8004542 <_malloc_r+0x1a2>
 800463e:	bf00      	nop
 8004640:	20000190 	.word	0x20000190
 8004644:	20000198 	.word	0x20000198
 8004648:	f8d5 b008 	ldr.w	fp, [r5, #8]
 800464c:	f8db 6004 	ldr.w	r6, [fp, #4]
 8004650:	f026 0603 	bic.w	r6, r6, #3
 8004654:	42b4      	cmp	r4, r6
 8004656:	d803      	bhi.n	8004660 <_malloc_r+0x2c0>
 8004658:	1b33      	subs	r3, r6, r4
 800465a:	2b0f      	cmp	r3, #15
 800465c:	f300 8096 	bgt.w	800478c <_malloc_r+0x3ec>
 8004660:	4a4f      	ldr	r2, [pc, #316]	; (80047a0 <_malloc_r+0x400>)
 8004662:	6817      	ldr	r7, [r2, #0]
 8004664:	4a4f      	ldr	r2, [pc, #316]	; (80047a4 <_malloc_r+0x404>)
 8004666:	6811      	ldr	r1, [r2, #0]
 8004668:	3710      	adds	r7, #16
 800466a:	3101      	adds	r1, #1
 800466c:	eb0b 0306 	add.w	r3, fp, r6
 8004670:	4427      	add	r7, r4
 8004672:	d005      	beq.n	8004680 <_malloc_r+0x2e0>
 8004674:	494c      	ldr	r1, [pc, #304]	; (80047a8 <_malloc_r+0x408>)
 8004676:	3901      	subs	r1, #1
 8004678:	440f      	add	r7, r1
 800467a:	3101      	adds	r1, #1
 800467c:	4249      	negs	r1, r1
 800467e:	400f      	ands	r7, r1
 8004680:	4639      	mov	r1, r7
 8004682:	4648      	mov	r0, r9
 8004684:	9201      	str	r2, [sp, #4]
 8004686:	9300      	str	r3, [sp, #0]
 8004688:	f000 fb80 	bl	8004d8c <_sbrk_r>
 800468c:	f1b0 3fff 	cmp.w	r0, #4294967295	; 0xffffffff
 8004690:	4680      	mov	r8, r0
 8004692:	d056      	beq.n	8004742 <_malloc_r+0x3a2>
 8004694:	9b00      	ldr	r3, [sp, #0]
 8004696:	9a01      	ldr	r2, [sp, #4]
 8004698:	4283      	cmp	r3, r0
 800469a:	d901      	bls.n	80046a0 <_malloc_r+0x300>
 800469c:	45ab      	cmp	fp, r5
 800469e:	d150      	bne.n	8004742 <_malloc_r+0x3a2>
 80046a0:	4842      	ldr	r0, [pc, #264]	; (80047ac <_malloc_r+0x40c>)
 80046a2:	6801      	ldr	r1, [r0, #0]
 80046a4:	4543      	cmp	r3, r8
 80046a6:	eb07 0e01 	add.w	lr, r7, r1
 80046aa:	f8c0 e000 	str.w	lr, [r0]
 80046ae:	4940      	ldr	r1, [pc, #256]	; (80047b0 <_malloc_r+0x410>)
 80046b0:	4682      	mov	sl, r0
 80046b2:	d113      	bne.n	80046dc <_malloc_r+0x33c>
 80046b4:	420b      	tst	r3, r1
 80046b6:	d111      	bne.n	80046dc <_malloc_r+0x33c>
 80046b8:	68ab      	ldr	r3, [r5, #8]
 80046ba:	443e      	add	r6, r7
 80046bc:	f046 0601 	orr.w	r6, r6, #1
 80046c0:	605e      	str	r6, [r3, #4]
 80046c2:	4a3c      	ldr	r2, [pc, #240]	; (80047b4 <_malloc_r+0x414>)
 80046c4:	f8da 3000 	ldr.w	r3, [sl]
 80046c8:	6811      	ldr	r1, [r2, #0]
 80046ca:	428b      	cmp	r3, r1
 80046cc:	bf88      	it	hi
 80046ce:	6013      	strhi	r3, [r2, #0]
 80046d0:	4a39      	ldr	r2, [pc, #228]	; (80047b8 <_malloc_r+0x418>)
 80046d2:	6811      	ldr	r1, [r2, #0]
 80046d4:	428b      	cmp	r3, r1
 80046d6:	bf88      	it	hi
 80046d8:	6013      	strhi	r3, [r2, #0]
 80046da:	e032      	b.n	8004742 <_malloc_r+0x3a2>
 80046dc:	6810      	ldr	r0, [r2, #0]
 80046de:	3001      	adds	r0, #1
 80046e0:	bf1b      	ittet	ne
 80046e2:	eba8 0303 	subne.w	r3, r8, r3
 80046e6:	4473      	addne	r3, lr
 80046e8:	f8c2 8000 	streq.w	r8, [r2]
 80046ec:	f8ca 3000 	strne.w	r3, [sl]
 80046f0:	f018 0007 	ands.w	r0, r8, #7
 80046f4:	bf1c      	itt	ne
 80046f6:	f1c0 0008 	rsbne	r0, r0, #8
 80046fa:	4480      	addne	r8, r0
 80046fc:	4b2a      	ldr	r3, [pc, #168]	; (80047a8 <_malloc_r+0x408>)
 80046fe:	4447      	add	r7, r8
 8004700:	4418      	add	r0, r3
 8004702:	400f      	ands	r7, r1
 8004704:	1bc7      	subs	r7, r0, r7
 8004706:	4639      	mov	r1, r7
 8004708:	4648      	mov	r0, r9
 800470a:	f000 fb3f 	bl	8004d8c <_sbrk_r>
 800470e:	1c43      	adds	r3, r0, #1
 8004710:	bf08      	it	eq
 8004712:	4640      	moveq	r0, r8
 8004714:	f8da 3000 	ldr.w	r3, [sl]
 8004718:	f8c5 8008 	str.w	r8, [r5, #8]
 800471c:	bf08      	it	eq
 800471e:	2700      	moveq	r7, #0
 8004720:	eba0 0008 	sub.w	r0, r0, r8
 8004724:	443b      	add	r3, r7
 8004726:	4407      	add	r7, r0
 8004728:	f047 0701 	orr.w	r7, r7, #1
 800472c:	45ab      	cmp	fp, r5
 800472e:	f8ca 3000 	str.w	r3, [sl]
 8004732:	f8c8 7004 	str.w	r7, [r8, #4]
 8004736:	d0c4      	beq.n	80046c2 <_malloc_r+0x322>
 8004738:	2e0f      	cmp	r6, #15
 800473a:	d810      	bhi.n	800475e <_malloc_r+0x3be>
 800473c:	2301      	movs	r3, #1
 800473e:	f8c8 3004 	str.w	r3, [r8, #4]
 8004742:	68ab      	ldr	r3, [r5, #8]
 8004744:	685a      	ldr	r2, [r3, #4]
 8004746:	f022 0203 	bic.w	r2, r2, #3
 800474a:	4294      	cmp	r4, r2
 800474c:	eba2 0304 	sub.w	r3, r2, r4
 8004750:	d801      	bhi.n	8004756 <_malloc_r+0x3b6>
 8004752:	2b0f      	cmp	r3, #15
 8004754:	dc1a      	bgt.n	800478c <_malloc_r+0x3ec>
 8004756:	4648      	mov	r0, r9
 8004758:	f000 f842 	bl	80047e0 <__malloc_unlock>
 800475c:	e62d      	b.n	80043ba <_malloc_r+0x1a>
 800475e:	f8db 3004 	ldr.w	r3, [fp, #4]
 8004762:	3e0c      	subs	r6, #12
 8004764:	f026 0607 	bic.w	r6, r6, #7
 8004768:	f003 0301 	and.w	r3, r3, #1
 800476c:	4333      	orrs	r3, r6
 800476e:	f8cb 3004 	str.w	r3, [fp, #4]
 8004772:	eb0b 0306 	add.w	r3, fp, r6
 8004776:	2205      	movs	r2, #5
 8004778:	2e0f      	cmp	r6, #15
 800477a:	605a      	str	r2, [r3, #4]
 800477c:	609a      	str	r2, [r3, #8]
 800477e:	d9a0      	bls.n	80046c2 <_malloc_r+0x322>
 8004780:	f10b 0108 	add.w	r1, fp, #8
 8004784:	4648      	mov	r0, r9
 8004786:	f000 fc0f 	bl	8004fa8 <_free_r>
 800478a:	e79a      	b.n	80046c2 <_malloc_r+0x322>
 800478c:	68ae      	ldr	r6, [r5, #8]
 800478e:	f044 0201 	orr.w	r2, r4, #1
 8004792:	4434      	add	r4, r6
 8004794:	f043 0301 	orr.w	r3, r3, #1
 8004798:	6072      	str	r2, [r6, #4]
 800479a:	60ac      	str	r4, [r5, #8]
 800479c:	6063      	str	r3, [r4, #4]
 800479e:	e631      	b.n	8004404 <_malloc_r+0x64>
 80047a0:	20000764 	.word	0x20000764
 80047a4:	20000598 	.word	0x20000598
 80047a8:	00000080 	.word	0x00000080
 80047ac:	20000734 	.word	0x20000734
 80047b0:	0000007f 	.word	0x0000007f
 80047b4:	2000075c 	.word	0x2000075c
 80047b8:	20000760 	.word	0x20000760

080047bc <memcpy>:
 80047bc:	b510      	push	{r4, lr}
 80047be:	1e43      	subs	r3, r0, #1
 80047c0:	440a      	add	r2, r1
 80047c2:	4291      	cmp	r1, r2
 80047c4:	d100      	bne.n	80047c8 <memcpy+0xc>
 80047c6:	bd10      	pop	{r4, pc}
 80047c8:	f811 4b01 	ldrb.w	r4, [r1], #1
 80047cc:	f803 4f01 	strb.w	r4, [r3, #1]!
 80047d0:	e7f7      	b.n	80047c2 <memcpy+0x6>
	...

080047d4 <__malloc_lock>:
 80047d4:	4801      	ldr	r0, [pc, #4]	; (80047dc <__malloc_lock+0x8>)
 80047d6:	f000 bca3 	b.w	8005120 <__retarget_lock_acquire_recursive>
 80047da:	bf00      	nop
 80047dc:	20000790 	.word	0x20000790

080047e0 <__malloc_unlock>:
 80047e0:	4801      	ldr	r0, [pc, #4]	; (80047e8 <__malloc_unlock+0x8>)
 80047e2:	f000 bc9e 	b.w	8005122 <__retarget_lock_release_recursive>
 80047e6:	bf00      	nop
 80047e8:	20000790 	.word	0x20000790

080047ec <_Balloc>:
 80047ec:	b570      	push	{r4, r5, r6, lr}
 80047ee:	6a45      	ldr	r5, [r0, #36]	; 0x24
 80047f0:	4604      	mov	r4, r0
 80047f2:	460e      	mov	r6, r1
 80047f4:	b93d      	cbnz	r5, 8004806 <_Balloc+0x1a>
 80047f6:	2010      	movs	r0, #16
 80047f8:	f7ff fdca 	bl	8004390 <malloc>
 80047fc:	6260      	str	r0, [r4, #36]	; 0x24
 80047fe:	6045      	str	r5, [r0, #4]
 8004800:	6085      	str	r5, [r0, #8]
 8004802:	6005      	str	r5, [r0, #0]
 8004804:	60c5      	str	r5, [r0, #12]
 8004806:	6a65      	ldr	r5, [r4, #36]	; 0x24
 8004808:	68eb      	ldr	r3, [r5, #12]
 800480a:	b183      	cbz	r3, 800482e <_Balloc+0x42>
 800480c:	6a63      	ldr	r3, [r4, #36]	; 0x24
 800480e:	68db      	ldr	r3, [r3, #12]
 8004810:	f853 0026 	ldr.w	r0, [r3, r6, lsl #2]
 8004814:	b9b8      	cbnz	r0, 8004846 <_Balloc+0x5a>
 8004816:	2101      	movs	r1, #1
 8004818:	fa01 f506 	lsl.w	r5, r1, r6
 800481c:	1d6a      	adds	r2, r5, #5
 800481e:	0092      	lsls	r2, r2, #2
 8004820:	4620      	mov	r0, r4
 8004822:	f000 fb3d 	bl	8004ea0 <_calloc_r>
 8004826:	b160      	cbz	r0, 8004842 <_Balloc+0x56>
 8004828:	6046      	str	r6, [r0, #4]
 800482a:	6085      	str	r5, [r0, #8]
 800482c:	e00e      	b.n	800484c <_Balloc+0x60>
 800482e:	2221      	movs	r2, #33	; 0x21
 8004830:	2104      	movs	r1, #4
 8004832:	4620      	mov	r0, r4
 8004834:	f000 fb34 	bl	8004ea0 <_calloc_r>
 8004838:	6a63      	ldr	r3, [r4, #36]	; 0x24
 800483a:	60e8      	str	r0, [r5, #12]
 800483c:	68db      	ldr	r3, [r3, #12]
 800483e:	2b00      	cmp	r3, #0
 8004840:	d1e4      	bne.n	800480c <_Balloc+0x20>
 8004842:	2000      	movs	r0, #0
 8004844:	bd70      	pop	{r4, r5, r6, pc}
 8004846:	6802      	ldr	r2, [r0, #0]
 8004848:	f843 2026 	str.w	r2, [r3, r6, lsl #2]
 800484c:	2300      	movs	r3, #0
 800484e:	6103      	str	r3, [r0, #16]
 8004850:	60c3      	str	r3, [r0, #12]
 8004852:	bd70      	pop	{r4, r5, r6, pc}

08004854 <_Bfree>:
 8004854:	b570      	push	{r4, r5, r6, lr}
 8004856:	6a44      	ldr	r4, [r0, #36]	; 0x24
 8004858:	4606      	mov	r6, r0
 800485a:	460d      	mov	r5, r1
 800485c:	b93c      	cbnz	r4, 800486e <_Bfree+0x1a>
 800485e:	2010      	movs	r0, #16
 8004860:	f7ff fd96 	bl	8004390 <malloc>
 8004864:	6270      	str	r0, [r6, #36]	; 0x24
 8004866:	6044      	str	r4, [r0, #4]
 8004868:	6084      	str	r4, [r0, #8]
 800486a:	6004      	str	r4, [r0, #0]
 800486c:	60c4      	str	r4, [r0, #12]
 800486e:	b13d      	cbz	r5, 8004880 <_Bfree+0x2c>
 8004870:	6a73      	ldr	r3, [r6, #36]	; 0x24
 8004872:	686a      	ldr	r2, [r5, #4]
 8004874:	68db      	ldr	r3, [r3, #12]
 8004876:	f853 1022 	ldr.w	r1, [r3, r2, lsl #2]
 800487a:	6029      	str	r1, [r5, #0]
 800487c:	f843 5022 	str.w	r5, [r3, r2, lsl #2]
 8004880:	bd70      	pop	{r4, r5, r6, pc}

08004882 <__multadd>:
 8004882:	e92d 41f0 	stmdb	sp!, {r4, r5, r6, r7, r8, lr}
 8004886:	690d      	ldr	r5, [r1, #16]
 8004888:	461f      	mov	r7, r3
 800488a:	4606      	mov	r6, r0
 800488c:	460c      	mov	r4, r1
 800488e:	f101 0e14 	add.w	lr, r1, #20
 8004892:	2300      	movs	r3, #0
 8004894:	f8de 0000 	ldr.w	r0, [lr]
 8004898:	b281      	uxth	r1, r0
 800489a:	fb02 7101 	mla	r1, r2, r1, r7
 800489e:	0c0f      	lsrs	r7, r1, #16
 80048a0:	0c00      	lsrs	r0, r0, #16
 80048a2:	fb02 7000 	mla	r0, r2, r0, r7
 80048a6:	b289      	uxth	r1, r1
 80048a8:	3301      	adds	r3, #1
 80048aa:	eb01 4100 	add.w	r1, r1, r0, lsl #16
 80048ae:	429d      	cmp	r5, r3
 80048b0:	ea4f 4710 	mov.w	r7, r0, lsr #16
 80048b4:	f84e 1b04 	str.w	r1, [lr], #4
 80048b8:	dcec      	bgt.n	8004894 <__multadd+0x12>
 80048ba:	b1d7      	cbz	r7, 80048f2 <__multadd+0x70>
 80048bc:	68a3      	ldr	r3, [r4, #8]
 80048be:	429d      	cmp	r5, r3
 80048c0:	db12      	blt.n	80048e8 <__multadd+0x66>
 80048c2:	6861      	ldr	r1, [r4, #4]
 80048c4:	4630      	mov	r0, r6
 80048c6:	3101      	adds	r1, #1
 80048c8:	f7ff ff90 	bl	80047ec <_Balloc>
 80048cc:	6922      	ldr	r2, [r4, #16]
 80048ce:	3202      	adds	r2, #2
 80048d0:	f104 010c 	add.w	r1, r4, #12
 80048d4:	4680      	mov	r8, r0
 80048d6:	0092      	lsls	r2, r2, #2
 80048d8:	300c      	adds	r0, #12
 80048da:	f7ff ff6f 	bl	80047bc <memcpy>
 80048de:	4621      	mov	r1, r4
 80048e0:	4630      	mov	r0, r6
 80048e2:	f7ff ffb7 	bl	8004854 <_Bfree>
 80048e6:	4644      	mov	r4, r8
 80048e8:	eb04 0385 	add.w	r3, r4, r5, lsl #2
 80048ec:	3501      	adds	r5, #1
 80048ee:	615f      	str	r7, [r3, #20]
 80048f0:	6125      	str	r5, [r4, #16]
 80048f2:	4620      	mov	r0, r4
 80048f4:	e8bd 81f0 	ldmia.w	sp!, {r4, r5, r6, r7, r8, pc}

080048f8 <__hi0bits>:
 80048f8:	0c02      	lsrs	r2, r0, #16
 80048fa:	0412      	lsls	r2, r2, #16
 80048fc:	4603      	mov	r3, r0
 80048fe:	b9b2      	cbnz	r2, 800492e <__hi0bits+0x36>
 8004900:	0403      	lsls	r3, r0, #16
 8004902:	2010      	movs	r0, #16
 8004904:	f013 4f7f 	tst.w	r3, #4278190080	; 0xff000000
 8004908:	bf04      	itt	eq
 800490a:	021b      	lsleq	r3, r3, #8
 800490c:	3008      	addeq	r0, #8
 800490e:	f013 4f70 	tst.w	r3, #4026531840	; 0xf0000000
 8004912:	bf04      	itt	eq
 8004914:	011b      	lsleq	r3, r3, #4
 8004916:	3004      	addeq	r0, #4
 8004918:	f013 4f40 	tst.w	r3, #3221225472	; 0xc0000000
 800491c:	bf04      	itt	eq
 800491e:	009b      	lsleq	r3, r3, #2
 8004920:	3002      	addeq	r0, #2
 8004922:	2b00      	cmp	r3, #0
 8004924:	db06      	blt.n	8004934 <__hi0bits+0x3c>
 8004926:	005b      	lsls	r3, r3, #1
 8004928:	d503      	bpl.n	8004932 <__hi0bits+0x3a>
 800492a:	3001      	adds	r0, #1
 800492c:	4770      	bx	lr
 800492e:	2000      	movs	r0, #0
 8004930:	e7e8      	b.n	8004904 <__hi0bits+0xc>
 8004932:	2020      	movs	r0, #32
 8004934:	4770      	bx	lr

08004936 <__lo0bits>:
 8004936:	6803      	ldr	r3, [r0, #0]
 8004938:	f013 0207 	ands.w	r2, r3, #7
 800493c:	4601      	mov	r1, r0
 800493e:	d00b      	beq.n	8004958 <__lo0bits+0x22>
 8004940:	07da      	lsls	r2, r3, #31
 8004942:	d423      	bmi.n	800498c <__lo0bits+0x56>
 8004944:	0798      	lsls	r0, r3, #30
 8004946:	bf49      	itett	mi
 8004948:	085b      	lsrmi	r3, r3, #1
 800494a:	089b      	lsrpl	r3, r3, #2
 800494c:	2001      	movmi	r0, #1
 800494e:	600b      	strmi	r3, [r1, #0]
 8004950:	bf5c      	itt	pl
 8004952:	600b      	strpl	r3, [r1, #0]
 8004954:	2002      	movpl	r0, #2
 8004956:	4770      	bx	lr
 8004958:	b298      	uxth	r0, r3
 800495a:	b9a8      	cbnz	r0, 8004988 <__lo0bits+0x52>
 800495c:	0c1b      	lsrs	r3, r3, #16
 800495e:	2010      	movs	r0, #16
 8004960:	f013 0fff 	tst.w	r3, #255	; 0xff
 8004964:	bf04      	itt	eq
 8004966:	0a1b      	lsreq	r3, r3, #8
 8004968:	3008      	addeq	r0, #8
 800496a:	071a      	lsls	r2, r3, #28
 800496c:	bf04      	itt	eq
 800496e:	091b      	lsreq	r3, r3, #4
 8004970:	3004      	addeq	r0, #4
 8004972:	079a      	lsls	r2, r3, #30
 8004974:	bf04      	itt	eq
 8004976:	089b      	lsreq	r3, r3, #2
 8004978:	3002      	addeq	r0, #2
 800497a:	07da      	lsls	r2, r3, #31
 800497c:	d402      	bmi.n	8004984 <__lo0bits+0x4e>
 800497e:	085b      	lsrs	r3, r3, #1
 8004980:	d006      	beq.n	8004990 <__lo0bits+0x5a>
 8004982:	3001      	adds	r0, #1
 8004984:	600b      	str	r3, [r1, #0]
 8004986:	4770      	bx	lr
 8004988:	4610      	mov	r0, r2
 800498a:	e7e9      	b.n	8004960 <__lo0bits+0x2a>
 800498c:	2000      	movs	r0, #0
 800498e:	4770      	bx	lr
 8004990:	2020      	movs	r0, #32
 8004992:	4770      	bx	lr

08004994 <__i2b>:
 8004994:	b510      	push	{r4, lr}
 8004996:	460c      	mov	r4, r1
 8004998:	2101      	movs	r1, #1
 800499a:	f7ff ff27 	bl	80047ec <_Balloc>
 800499e:	2201      	movs	r2, #1
 80049a0:	6144      	str	r4, [r0, #20]
 80049a2:	6102      	str	r2, [r0, #16]
 80049a4:	bd10      	pop	{r4, pc}

080049a6 <__multiply>:
 80049a6:	e92d 4ff7 	stmdb	sp!, {r0, r1, r2, r4, r5, r6, r7, r8, r9, sl, fp, lr}
 80049aa:	4614      	mov	r4, r2
 80049ac:	690a      	ldr	r2, [r1, #16]
 80049ae:	6923      	ldr	r3, [r4, #16]
 80049b0:	429a      	cmp	r2, r3
 80049b2:	bfb8      	it	lt
 80049b4:	460b      	movlt	r3, r1
 80049b6:	4689      	mov	r9, r1
 80049b8:	bfbc      	itt	lt
 80049ba:	46a1      	movlt	r9, r4
 80049bc:	461c      	movlt	r4, r3
 80049be:	f8d9 7010 	ldr.w	r7, [r9, #16]
 80049c2:	f8d4 a010 	ldr.w	sl, [r4, #16]
 80049c6:	f8d9 3008 	ldr.w	r3, [r9, #8]
 80049ca:	f8d9 1004 	ldr.w	r1, [r9, #4]
 80049ce:	eb07 060a 	add.w	r6, r7, sl
 80049d2:	429e      	cmp	r6, r3
 80049d4:	bfc8      	it	gt
 80049d6:	3101      	addgt	r1, #1
 80049d8:	f7ff ff08 	bl	80047ec <_Balloc>
 80049dc:	f100 0514 	add.w	r5, r0, #20
 80049e0:	eb05 0886 	add.w	r8, r5, r6, lsl #2
 80049e4:	462b      	mov	r3, r5
 80049e6:	2200      	movs	r2, #0
 80049e8:	4543      	cmp	r3, r8
 80049ea:	d316      	bcc.n	8004a1a <__multiply+0x74>
 80049ec:	f104 0214 	add.w	r2, r4, #20
 80049f0:	f109 0114 	add.w	r1, r9, #20
 80049f4:	eb02 038a 	add.w	r3, r2, sl, lsl #2
 80049f8:	eb01 0787 	add.w	r7, r1, r7, lsl #2
 80049fc:	9301      	str	r3, [sp, #4]
 80049fe:	9c01      	ldr	r4, [sp, #4]
 8004a00:	4294      	cmp	r4, r2
 8004a02:	4613      	mov	r3, r2
 8004a04:	d80c      	bhi.n	8004a20 <__multiply+0x7a>
 8004a06:	2e00      	cmp	r6, #0
 8004a08:	dd03      	ble.n	8004a12 <__multiply+0x6c>
 8004a0a:	f858 3d04 	ldr.w	r3, [r8, #-4]!
 8004a0e:	2b00      	cmp	r3, #0
 8004a10:	d054      	beq.n	8004abc <__multiply+0x116>
 8004a12:	6106      	str	r6, [r0, #16]
 8004a14:	b003      	add	sp, #12
 8004a16:	e8bd 8ff0 	ldmia.w	sp!, {r4, r5, r6, r7, r8, r9, sl, fp, pc}
 8004a1a:	f843 2b04 	str.w	r2, [r3], #4
 8004a1e:	e7e3      	b.n	80049e8 <__multiply+0x42>
 8004a20:	f8b3 a000 	ldrh.w	sl, [r3]
 8004a24:	3204      	adds	r2, #4
 8004a26:	f1ba 0f00 	cmp.w	sl, #0
 8004a2a:	d020      	beq.n	8004a6e <__multiply+0xc8>
 8004a2c:	46ae      	mov	lr, r5
 8004a2e:	4689      	mov	r9, r1
 8004a30:	f04f 0c00 	mov.w	ip, #0
 8004a34:	f859 4b04 	ldr.w	r4, [r9], #4
 8004a38:	f8be b000 	ldrh.w	fp, [lr]
 8004a3c:	b2a3      	uxth	r3, r4
 8004a3e:	fb0a b303 	mla	r3, sl, r3, fp
 8004a42:	ea4f 4b14 	mov.w	fp, r4, lsr #16
 8004a46:	f8de 4000 	ldr.w	r4, [lr]
 8004a4a:	4463      	add	r3, ip
 8004a4c:	ea4f 4c14 	mov.w	ip, r4, lsr #16
 8004a50:	fb0a c40b 	mla	r4, sl, fp, ip
 8004a54:	eb04 4413 	add.w	r4, r4, r3, lsr #16
 8004a58:	b29b      	uxth	r3, r3
 8004a5a:	ea43 4304 	orr.w	r3, r3, r4, lsl #16
 8004a5e:	454f      	cmp	r7, r9
 8004a60:	ea4f 4c14 	mov.w	ip, r4, lsr #16
 8004a64:	f84e 3b04 	str.w	r3, [lr], #4
 8004a68:	d8e4      	bhi.n	8004a34 <__multiply+0x8e>
 8004a6a:	f8ce c000 	str.w	ip, [lr]
 8004a6e:	f832 9c02 	ldrh.w	r9, [r2, #-2]
 8004a72:	f1b9 0f00 	cmp.w	r9, #0
 8004a76:	d01f      	beq.n	8004ab8 <__multiply+0x112>
 8004a78:	682b      	ldr	r3, [r5, #0]
 8004a7a:	46ae      	mov	lr, r5
 8004a7c:	468c      	mov	ip, r1
 8004a7e:	f04f 0a00 	mov.w	sl, #0
 8004a82:	f8bc 4000 	ldrh.w	r4, [ip]
 8004a86:	f8be b002 	ldrh.w	fp, [lr, #2]
 8004a8a:	fb09 b404 	mla	r4, r9, r4, fp
 8004a8e:	44a2      	add	sl, r4
 8004a90:	b29b      	uxth	r3, r3
 8004a92:	ea43 430a 	orr.w	r3, r3, sl, lsl #16
 8004a96:	f84e 3b04 	str.w	r3, [lr], #4
 8004a9a:	f85c 3b04 	ldr.w	r3, [ip], #4
 8004a9e:	f8be 4000 	ldrh.w	r4, [lr]
 8004aa2:	0c1b      	lsrs	r3, r3, #16
 8004aa4:	fb09 4303 	mla	r3, r9, r3, r4
 8004aa8:	eb03 431a 	add.w	r3, r3, sl, lsr #16
 8004aac:	4567      	cmp	r7, ip
 8004aae:	ea4f 4a13 	mov.w	sl, r3, lsr #16
 8004ab2:	d8e6      	bhi.n	8004a82 <__multiply+0xdc>
 8004ab4:	f8ce 3000 	str.w	r3, [lr]
 8004ab8:	3504      	adds	r5, #4
 8004aba:	e7a0      	b.n	80049fe <__multiply+0x58>
 8004abc:	3e01      	subs	r6, #1
 8004abe:	e7a2      	b.n	8004a06 <__multiply+0x60>

08004ac0 <__pow5mult>:
 8004ac0:	e92d 43f8 	stmdb	sp!, {r3, r4, r5, r6, r7, r8, r9, lr}
 8004ac4:	4615      	mov	r5, r2
 8004ac6:	f012 0203 	ands.w	r2, r2, #3
 8004aca:	4606      	mov	r6, r0
 8004acc:	460f      	mov	r7, r1
 8004ace:	d007      	beq.n	8004ae0 <__pow5mult+0x20>
 8004ad0:	3a01      	subs	r2, #1
 8004ad2:	4c21      	ldr	r4, [pc, #132]	; (8004b58 <__pow5mult+0x98>)
 8004ad4:	2300      	movs	r3, #0
 8004ad6:	f854 2022 	ldr.w	r2, [r4, r2, lsl #2]
 8004ada:	f7ff fed2 	bl	8004882 <__multadd>
 8004ade:	4607      	mov	r7, r0
 8004ae0:	10ad      	asrs	r5, r5, #2
 8004ae2:	d035      	beq.n	8004b50 <__pow5mult+0x90>
 8004ae4:	6a74      	ldr	r4, [r6, #36]	; 0x24
 8004ae6:	b93c      	cbnz	r4, 8004af8 <__pow5mult+0x38>
 8004ae8:	2010      	movs	r0, #16
 8004aea:	f7ff fc51 	bl	8004390 <malloc>
 8004aee:	6270      	str	r0, [r6, #36]	; 0x24
 8004af0:	6044      	str	r4, [r0, #4]
 8004af2:	6084      	str	r4, [r0, #8]
 8004af4:	6004      	str	r4, [r0, #0]
 8004af6:	60c4      	str	r4, [r0, #12]
 8004af8:	f8d6 8024 	ldr.w	r8, [r6, #36]	; 0x24
 8004afc:	f8d8 4008 	ldr.w	r4, [r8, #8]
 8004b00:	b94c      	cbnz	r4, 8004b16 <__pow5mult+0x56>
 8004b02:	f240 2171 	movw	r1, #625	; 0x271
 8004b06:	4630      	mov	r0, r6
 8004b08:	f7ff ff44 	bl	8004994 <__i2b>
 8004b0c:	2300      	movs	r3, #0
 8004b0e:	f8c8 0008 	str.w	r0, [r8, #8]
 8004b12:	4604      	mov	r4, r0
 8004b14:	6003      	str	r3, [r0, #0]
 8004b16:	f04f 0800 	mov.w	r8, #0
 8004b1a:	07eb      	lsls	r3, r5, #31
 8004b1c:	d50a      	bpl.n	8004b34 <__pow5mult+0x74>
 8004b1e:	4639      	mov	r1, r7
 8004b20:	4622      	mov	r2, r4
 8004b22:	4630      	mov	r0, r6
 8004b24:	f7ff ff3f 	bl	80049a6 <__multiply>
 8004b28:	4639      	mov	r1, r7
 8004b2a:	4681      	mov	r9, r0
 8004b2c:	4630      	mov	r0, r6
 8004b2e:	f7ff fe91 	bl	8004854 <_Bfree>
 8004b32:	464f      	mov	r7, r9
 8004b34:	106d      	asrs	r5, r5, #1
 8004b36:	d00b      	beq.n	8004b50 <__pow5mult+0x90>
 8004b38:	6820      	ldr	r0, [r4, #0]
 8004b3a:	b938      	cbnz	r0, 8004b4c <__pow5mult+0x8c>
 8004b3c:	4622      	mov	r2, r4
 8004b3e:	4621      	mov	r1, r4
 8004b40:	4630      	mov	r0, r6
 8004b42:	f7ff ff30 	bl	80049a6 <__multiply>
 8004b46:	6020      	str	r0, [r4, #0]
 8004b48:	f8c0 8000 	str.w	r8, [r0]
 8004b4c:	4604      	mov	r4, r0
 8004b4e:	e7e4      	b.n	8004b1a <__pow5mult+0x5a>
 8004b50:	4638      	mov	r0, r7
 8004b52:	e8bd 83f8 	ldmia.w	sp!, {r3, r4, r5, r6, r7, r8, r9, pc}
 8004b56:	bf00      	nop
 8004b58:	08005650 	.word	0x08005650

08004b5c <__lshift>:
 8004b5c:	e92d 47f0 	stmdb	sp!, {r4, r5, r6, r7, r8, r9, sl, lr}
 8004b60:	460c      	mov	r4, r1
 8004b62:	ea4f 1a62 	mov.w	sl, r2, asr #5
 8004b66:	6923      	ldr	r3, [r4, #16]
 8004b68:	6849      	ldr	r1, [r1, #4]
 8004b6a:	eb0a 0903 	add.w	r9, sl, r3
 8004b6e:	68a3      	ldr	r3, [r4, #8]
 8004b70:	4607      	mov	r7, r0
 8004b72:	4616      	mov	r6, r2
 8004b74:	f109 0501 	add.w	r5, r9, #1
 8004b78:	42ab      	cmp	r3, r5
 8004b7a:	db31      	blt.n	8004be0 <__lshift+0x84>
 8004b7c:	4638      	mov	r0, r7
 8004b7e:	f7ff fe35 	bl	80047ec <_Balloc>
 8004b82:	2200      	movs	r2, #0
 8004b84:	4680      	mov	r8, r0
 8004b86:	f100 0314 	add.w	r3, r0, #20
 8004b8a:	4611      	mov	r1, r2
 8004b8c:	4552      	cmp	r2, sl
 8004b8e:	db2a      	blt.n	8004be6 <__lshift+0x8a>
 8004b90:	6920      	ldr	r0, [r4, #16]
 8004b92:	ea2a 7aea 	bic.w	sl, sl, sl, asr #31
 8004b96:	f104 0114 	add.w	r1, r4, #20
 8004b9a:	f016 021f 	ands.w	r2, r6, #31
 8004b9e:	eb03 038a 	add.w	r3, r3, sl, lsl #2
 8004ba2:	eb01 0e80 	add.w	lr, r1, r0, lsl #2
 8004ba6:	d022      	beq.n	8004bee <__lshift+0x92>
 8004ba8:	f1c2 0c20 	rsb	ip, r2, #32
 8004bac:	2000      	movs	r0, #0
 8004bae:	680e      	ldr	r6, [r1, #0]
 8004bb0:	4096      	lsls	r6, r2
 8004bb2:	4330      	orrs	r0, r6
 8004bb4:	f843 0b04 	str.w	r0, [r3], #4
 8004bb8:	f851 0b04 	ldr.w	r0, [r1], #4
 8004bbc:	458e      	cmp	lr, r1
 8004bbe:	fa20 f00c 	lsr.w	r0, r0, ip
 8004bc2:	d8f4      	bhi.n	8004bae <__lshift+0x52>
 8004bc4:	6018      	str	r0, [r3, #0]
 8004bc6:	b108      	cbz	r0, 8004bcc <__lshift+0x70>
 8004bc8:	f109 0502 	add.w	r5, r9, #2
 8004bcc:	3d01      	subs	r5, #1
 8004bce:	4638      	mov	r0, r7
 8004bd0:	f8c8 5010 	str.w	r5, [r8, #16]
 8004bd4:	4621      	mov	r1, r4
 8004bd6:	f7ff fe3d 	bl	8004854 <_Bfree>
 8004bda:	4640      	mov	r0, r8
 8004bdc:	e8bd 87f0 	ldmia.w	sp!, {r4, r5, r6, r7, r8, r9, sl, pc}
 8004be0:	3101      	adds	r1, #1
 8004be2:	005b      	lsls	r3, r3, #1
 8004be4:	e7c8      	b.n	8004b78 <__lshift+0x1c>
 8004be6:	f843 1022 	str.w	r1, [r3, r2, lsl #2]
 8004bea:	3201      	adds	r2, #1
 8004bec:	e7ce      	b.n	8004b8c <__lshift+0x30>
 8004bee:	3b04      	subs	r3, #4
 8004bf0:	f851 2b04 	ldr.w	r2, [r1], #4
 8004bf4:	f843 2f04 	str.w	r2, [r3, #4]!
 8004bf8:	458e      	cmp	lr, r1
 8004bfa:	d8f9      	bhi.n	8004bf0 <__lshift+0x94>
 8004bfc:	e7e6      	b.n	8004bcc <__lshift+0x70>

08004bfe <__mcmp>:
 8004bfe:	6903      	ldr	r3, [r0, #16]
 8004c00:	690a      	ldr	r2, [r1, #16]
 8004c02:	1a9b      	subs	r3, r3, r2
 8004c04:	b530      	push	{r4, r5, lr}
 8004c06:	d10c      	bne.n	8004c22 <__mcmp+0x24>
 8004c08:	0092      	lsls	r2, r2, #2
 8004c0a:	3014      	adds	r0, #20
 8004c0c:	3114      	adds	r1, #20
 8004c0e:	1884      	adds	r4, r0, r2
 8004c10:	4411      	add	r1, r2
 8004c12:	f854 5d04 	ldr.w	r5, [r4, #-4]!
 8004c16:	f851 2d04 	ldr.w	r2, [r1, #-4]!
 8004c1a:	4295      	cmp	r5, r2
 8004c1c:	d003      	beq.n	8004c26 <__mcmp+0x28>
 8004c1e:	d305      	bcc.n	8004c2c <__mcmp+0x2e>
 8004c20:	2301      	movs	r3, #1
 8004c22:	4618      	mov	r0, r3
 8004c24:	bd30      	pop	{r4, r5, pc}
 8004c26:	42a0      	cmp	r0, r4
 8004c28:	d3f3      	bcc.n	8004c12 <__mcmp+0x14>
 8004c2a:	e7fa      	b.n	8004c22 <__mcmp+0x24>
 8004c2c:	f04f 33ff 	mov.w	r3, #4294967295	; 0xffffffff
 8004c30:	e7f7      	b.n	8004c22 <__mcmp+0x24>

08004c32 <__mdiff>:
 8004c32:	e92d 47f0 	stmdb	sp!, {r4, r5, r6, r7, r8, r9, sl, lr}
 8004c36:	460d      	mov	r5, r1
 8004c38:	4607      	mov	r7, r0
 8004c3a:	4611      	mov	r1, r2
 8004c3c:	4628      	mov	r0, r5
 8004c3e:	4614      	mov	r4, r2
 8004c40:	f7ff ffdd 	bl	8004bfe <__mcmp>
 8004c44:	1e06      	subs	r6, r0, #0
 8004c46:	d108      	bne.n	8004c5a <__mdiff+0x28>
 8004c48:	4631      	mov	r1, r6
 8004c4a:	4638      	mov	r0, r7
 8004c4c:	f7ff fdce 	bl	80047ec <_Balloc>
 8004c50:	2301      	movs	r3, #1
 8004c52:	6103      	str	r3, [r0, #16]
 8004c54:	6146      	str	r6, [r0, #20]
 8004c56:	e8bd 87f0 	ldmia.w	sp!, {r4, r5, r6, r7, r8, r9, sl, pc}
 8004c5a:	bfa4      	itt	ge
 8004c5c:	4623      	movge	r3, r4
 8004c5e:	462c      	movge	r4, r5
 8004c60:	4638      	mov	r0, r7
 8004c62:	6861      	ldr	r1, [r4, #4]
 8004c64:	bfa6      	itte	ge
 8004c66:	461d      	movge	r5, r3
 8004c68:	2600      	movge	r6, #0
 8004c6a:	2601      	movlt	r6, #1
 8004c6c:	f7ff fdbe 	bl	80047ec <_Balloc>
 8004c70:	692b      	ldr	r3, [r5, #16]
 8004c72:	60c6      	str	r6, [r0, #12]
 8004c74:	6926      	ldr	r6, [r4, #16]
 8004c76:	f105 0914 	add.w	r9, r5, #20
 8004c7a:	f104 0214 	add.w	r2, r4, #20
 8004c7e:	eb02 0786 	add.w	r7, r2, r6, lsl #2
 8004c82:	eb09 0883 	add.w	r8, r9, r3, lsl #2
 8004c86:	f100 0514 	add.w	r5, r0, #20
 8004c8a:	f04f 0c00 	mov.w	ip, #0
 8004c8e:	f852 ab04 	ldr.w	sl, [r2], #4
 8004c92:	f859 4b04 	ldr.w	r4, [r9], #4
 8004c96:	fa1c f18a 	uxtah	r1, ip, sl
 8004c9a:	b2a3      	uxth	r3, r4
 8004c9c:	1ac9      	subs	r1, r1, r3
 8004c9e:	0c23      	lsrs	r3, r4, #16
 8004ca0:	ebc3 431a 	rsb	r3, r3, sl, lsr #16
 8004ca4:	eb03 4321 	add.w	r3, r3, r1, asr #16
 8004ca8:	b289      	uxth	r1, r1
 8004caa:	ea4f 4c23 	mov.w	ip, r3, asr #16
 8004cae:	45c8      	cmp	r8, r9
 8004cb0:	ea41 4303 	orr.w	r3, r1, r3, lsl #16
 8004cb4:	4696      	mov	lr, r2
 8004cb6:	f845 3b04 	str.w	r3, [r5], #4
 8004cba:	d8e8      	bhi.n	8004c8e <__mdiff+0x5c>
 8004cbc:	45be      	cmp	lr, r7
 8004cbe:	d305      	bcc.n	8004ccc <__mdiff+0x9a>
 8004cc0:	f855 3d04 	ldr.w	r3, [r5, #-4]!
 8004cc4:	b18b      	cbz	r3, 8004cea <__mdiff+0xb8>
 8004cc6:	6106      	str	r6, [r0, #16]
 8004cc8:	e8bd 87f0 	ldmia.w	sp!, {r4, r5, r6, r7, r8, r9, sl, pc}
 8004ccc:	f85e 1b04 	ldr.w	r1, [lr], #4
 8004cd0:	fa1c f381 	uxtah	r3, ip, r1
 8004cd4:	141a      	asrs	r2, r3, #16
 8004cd6:	eb02 4211 	add.w	r2, r2, r1, lsr #16
 8004cda:	b29b      	uxth	r3, r3
 8004cdc:	ea43 4302 	orr.w	r3, r3, r2, lsl #16
 8004ce0:	ea4f 4c22 	mov.w	ip, r2, asr #16
 8004ce4:	f845 3b04 	str.w	r3, [r5], #4
 8004ce8:	e7e8      	b.n	8004cbc <__mdiff+0x8a>
 8004cea:	3e01      	subs	r6, #1
 8004cec:	e7e8      	b.n	8004cc0 <__mdiff+0x8e>

08004cee <__d2b>:
 8004cee:	e92d 43f7 	stmdb	sp!, {r0, r1, r2, r4, r5, r6, r7, r8, r9, lr}
 8004cf2:	460e      	mov	r6, r1
 8004cf4:	2101      	movs	r1, #1
 8004cf6:	ec59 8b10 	vmov	r8, r9, d0
 8004cfa:	4615      	mov	r5, r2
 8004cfc:	f7ff fd76 	bl	80047ec <_Balloc>
 8004d00:	f3c9 540a 	ubfx	r4, r9, #20, #11
 8004d04:	4607      	mov	r7, r0
 8004d06:	f3c9 0313 	ubfx	r3, r9, #0, #20
 8004d0a:	bb34      	cbnz	r4, 8004d5a <__d2b+0x6c>
 8004d0c:	9301      	str	r3, [sp, #4]
 8004d0e:	f1b8 0f00 	cmp.w	r8, #0
 8004d12:	d027      	beq.n	8004d64 <__d2b+0x76>
 8004d14:	a802      	add	r0, sp, #8
 8004d16:	f840 8d08 	str.w	r8, [r0, #-8]!
 8004d1a:	f7ff fe0c 	bl	8004936 <__lo0bits>
 8004d1e:	9900      	ldr	r1, [sp, #0]
 8004d20:	b1f0      	cbz	r0, 8004d60 <__d2b+0x72>
 8004d22:	9a01      	ldr	r2, [sp, #4]
 8004d24:	f1c0 0320 	rsb	r3, r0, #32
 8004d28:	fa02 f303 	lsl.w	r3, r2, r3
 8004d2c:	430b      	orrs	r3, r1
 8004d2e:	40c2      	lsrs	r2, r0
 8004d30:	617b      	str	r3, [r7, #20]
 8004d32:	9201      	str	r2, [sp, #4]
 8004d34:	9b01      	ldr	r3, [sp, #4]
 8004d36:	61bb      	str	r3, [r7, #24]
 8004d38:	2b00      	cmp	r3, #0
 8004d3a:	bf14      	ite	ne
 8004d3c:	2102      	movne	r1, #2
 8004d3e:	2101      	moveq	r1, #1
 8004d40:	6139      	str	r1, [r7, #16]
 8004d42:	b1c4      	cbz	r4, 8004d76 <__d2b+0x88>
 8004d44:	f2a4 4433 	subw	r4, r4, #1075	; 0x433
 8004d48:	4404      	add	r4, r0
 8004d4a:	6034      	str	r4, [r6, #0]
 8004d4c:	f1c0 0035 	rsb	r0, r0, #53	; 0x35
 8004d50:	6028      	str	r0, [r5, #0]
 8004d52:	4638      	mov	r0, r7
 8004d54:	b003      	add	sp, #12
 8004d56:	e8bd 83f0 	ldmia.w	sp!, {r4, r5, r6, r7, r8, r9, pc}
 8004d5a:	f443 1380 	orr.w	r3, r3, #1048576	; 0x100000
 8004d5e:	e7d5      	b.n	8004d0c <__d2b+0x1e>
 8004d60:	6179      	str	r1, [r7, #20]
 8004d62:	e7e7      	b.n	8004d34 <__d2b+0x46>
 8004d64:	a801      	add	r0, sp, #4
 8004d66:	f7ff fde6 	bl	8004936 <__lo0bits>
 8004d6a:	9b01      	ldr	r3, [sp, #4]
 8004d6c:	617b      	str	r3, [r7, #20]
 8004d6e:	2101      	movs	r1, #1
 8004d70:	6139      	str	r1, [r7, #16]
 8004d72:	3020      	adds	r0, #32
 8004d74:	e7e5      	b.n	8004d42 <__d2b+0x54>
 8004d76:	eb07 0381 	add.w	r3, r7, r1, lsl #2
 8004d7a:	f2a0 4032 	subw	r0, r0, #1074	; 0x432
 8004d7e:	6030      	str	r0, [r6, #0]
 8004d80:	6918      	ldr	r0, [r3, #16]
 8004d82:	f7ff fdb9 	bl	80048f8 <__hi0bits>
 8004d86:	ebc0 1041 	rsb	r0, r0, r1, lsl #5
 8004d8a:	e7e1      	b.n	8004d50 <__d2b+0x62>

08004d8c <_sbrk_r>:
 8004d8c:	b538      	push	{r3, r4, r5, lr}
 8004d8e:	4c06      	ldr	r4, [pc, #24]	; (8004da8 <_sbrk_r+0x1c>)
 8004d90:	2300      	movs	r3, #0
 8004d92:	4605      	mov	r5, r0
 8004d94:	4608      	mov	r0, r1
 8004d96:	6023      	str	r3, [r4, #0]
 8004d98:	f000 fb86 	bl	80054a8 <_sbrk>
 8004d9c:	1c43      	adds	r3, r0, #1
 8004d9e:	d102      	bne.n	8004da6 <_sbrk_r+0x1a>
 8004da0:	6823      	ldr	r3, [r4, #0]
 8004da2:	b103      	cbz	r3, 8004da6 <_sbrk_r+0x1a>
 8004da4:	602b      	str	r3, [r5, #0]
 8004da6:	bd38      	pop	{r3, r4, r5, pc}
 8004da8:	20000798 	.word	0x20000798

08004dac <__ssprint_r>:
 8004dac:	6893      	ldr	r3, [r2, #8]
 8004dae:	e92d 4ff7 	stmdb	sp!, {r0, r1, r2, r4, r5, r6, r7, r8, r9, sl, fp, lr}
 8004db2:	4681      	mov	r9, r0
 8004db4:	460c      	mov	r4, r1
 8004db6:	4617      	mov	r7, r2
 8004db8:	2b00      	cmp	r3, #0
 8004dba:	d060      	beq.n	8004e7e <__ssprint_r+0xd2>
 8004dbc:	f04f 0b00 	mov.w	fp, #0
 8004dc0:	f8d2 a000 	ldr.w	sl, [r2]
 8004dc4:	465e      	mov	r6, fp
 8004dc6:	b356      	cbz	r6, 8004e1e <__ssprint_r+0x72>
 8004dc8:	68a3      	ldr	r3, [r4, #8]
 8004dca:	429e      	cmp	r6, r3
 8004dcc:	d344      	bcc.n	8004e58 <__ssprint_r+0xac>
 8004dce:	89a2      	ldrh	r2, [r4, #12]
 8004dd0:	f412 6f90 	tst.w	r2, #1152	; 0x480
 8004dd4:	d03e      	beq.n	8004e54 <__ssprint_r+0xa8>
 8004dd6:	6825      	ldr	r5, [r4, #0]
 8004dd8:	6921      	ldr	r1, [r4, #16]
 8004dda:	eba5 0801 	sub.w	r8, r5, r1
 8004dde:	6965      	ldr	r5, [r4, #20]
 8004de0:	2302      	movs	r3, #2
 8004de2:	eb05 0545 	add.w	r5, r5, r5, lsl #1
 8004de6:	fb95 f5f3 	sdiv	r5, r5, r3
 8004dea:	f108 0301 	add.w	r3, r8, #1
 8004dee:	4433      	add	r3, r6
 8004df0:	429d      	cmp	r5, r3
 8004df2:	bf38      	it	cc
 8004df4:	461d      	movcc	r5, r3
 8004df6:	0553      	lsls	r3, r2, #21
 8004df8:	d546      	bpl.n	8004e88 <__ssprint_r+0xdc>
 8004dfa:	4629      	mov	r1, r5
 8004dfc:	4648      	mov	r0, r9
 8004dfe:	f7ff facf 	bl	80043a0 <_malloc_r>
 8004e02:	b998      	cbnz	r0, 8004e2c <__ssprint_r+0x80>
 8004e04:	230c      	movs	r3, #12
 8004e06:	f8c9 3000 	str.w	r3, [r9]
 8004e0a:	89a3      	ldrh	r3, [r4, #12]
 8004e0c:	f043 0340 	orr.w	r3, r3, #64	; 0x40
 8004e10:	81a3      	strh	r3, [r4, #12]
 8004e12:	2300      	movs	r3, #0
 8004e14:	60bb      	str	r3, [r7, #8]
 8004e16:	607b      	str	r3, [r7, #4]
 8004e18:	f04f 30ff 	mov.w	r0, #4294967295	; 0xffffffff
 8004e1c:	e031      	b.n	8004e82 <__ssprint_r+0xd6>
 8004e1e:	f8da b000 	ldr.w	fp, [sl]
 8004e22:	f8da 6004 	ldr.w	r6, [sl, #4]
 8004e26:	f10a 0a08 	add.w	sl, sl, #8
 8004e2a:	e7cc      	b.n	8004dc6 <__ssprint_r+0x1a>
 8004e2c:	4642      	mov	r2, r8
 8004e2e:	6921      	ldr	r1, [r4, #16]
 8004e30:	9001      	str	r0, [sp, #4]
 8004e32:	f7ff fcc3 	bl	80047bc <memcpy>
 8004e36:	89a2      	ldrh	r2, [r4, #12]
 8004e38:	9b01      	ldr	r3, [sp, #4]
 8004e3a:	f422 6290 	bic.w	r2, r2, #1152	; 0x480
 8004e3e:	f042 0280 	orr.w	r2, r2, #128	; 0x80
 8004e42:	81a2      	strh	r2, [r4, #12]
 8004e44:	6123      	str	r3, [r4, #16]
 8004e46:	6165      	str	r5, [r4, #20]
 8004e48:	4443      	add	r3, r8
 8004e4a:	eba5 0508 	sub.w	r5, r5, r8
 8004e4e:	6023      	str	r3, [r4, #0]
 8004e50:	60a5      	str	r5, [r4, #8]
 8004e52:	4633      	mov	r3, r6
 8004e54:	429e      	cmp	r6, r3
 8004e56:	d200      	bcs.n	8004e5a <__ssprint_r+0xae>
 8004e58:	4633      	mov	r3, r6
 8004e5a:	461a      	mov	r2, r3
 8004e5c:	4659      	mov	r1, fp
 8004e5e:	6820      	ldr	r0, [r4, #0]
 8004e60:	9301      	str	r3, [sp, #4]
 8004e62:	f000 f971 	bl	8005148 <memmove>
 8004e66:	68a2      	ldr	r2, [r4, #8]
 8004e68:	9b01      	ldr	r3, [sp, #4]
 8004e6a:	1ad2      	subs	r2, r2, r3
 8004e6c:	60a2      	str	r2, [r4, #8]
 8004e6e:	6822      	ldr	r2, [r4, #0]
 8004e70:	4413      	add	r3, r2
 8004e72:	6023      	str	r3, [r4, #0]
 8004e74:	68bb      	ldr	r3, [r7, #8]
 8004e76:	1b9e      	subs	r6, r3, r6
 8004e78:	60be      	str	r6, [r7, #8]
 8004e7a:	2e00      	cmp	r6, #0
 8004e7c:	d1cf      	bne.n	8004e1e <__ssprint_r+0x72>
 8004e7e:	2000      	movs	r0, #0
 8004e80:	6078      	str	r0, [r7, #4]
 8004e82:	b003      	add	sp, #12
 8004e84:	e8bd 8ff0 	ldmia.w	sp!, {r4, r5, r6, r7, r8, r9, sl, fp, pc}
 8004e88:	462a      	mov	r2, r5
 8004e8a:	4648      	mov	r0, r9
 8004e8c:	f000 f97e 	bl	800518c <_realloc_r>
 8004e90:	4603      	mov	r3, r0
 8004e92:	2800      	cmp	r0, #0
 8004e94:	d1d6      	bne.n	8004e44 <__ssprint_r+0x98>
 8004e96:	6921      	ldr	r1, [r4, #16]
 8004e98:	4648      	mov	r0, r9
 8004e9a:	f000 f885 	bl	8004fa8 <_free_r>
 8004e9e:	e7b1      	b.n	8004e04 <__ssprint_r+0x58>

08004ea0 <_calloc_r>:
 8004ea0:	b510      	push	{r4, lr}
 8004ea2:	4351      	muls	r1, r2
 8004ea4:	f7ff fa7c 	bl	80043a0 <_malloc_r>
 8004ea8:	4604      	mov	r4, r0
 8004eaa:	b198      	cbz	r0, 8004ed4 <_calloc_r+0x34>
 8004eac:	f850 2c04 	ldr.w	r2, [r0, #-4]
 8004eb0:	f022 0203 	bic.w	r2, r2, #3
 8004eb4:	3a04      	subs	r2, #4
 8004eb6:	2a24      	cmp	r2, #36	; 0x24
 8004eb8:	d81b      	bhi.n	8004ef2 <_calloc_r+0x52>
 8004eba:	2a13      	cmp	r2, #19
 8004ebc:	d917      	bls.n	8004eee <_calloc_r+0x4e>
 8004ebe:	2100      	movs	r1, #0
 8004ec0:	2a1b      	cmp	r2, #27
 8004ec2:	6001      	str	r1, [r0, #0]
 8004ec4:	6041      	str	r1, [r0, #4]
 8004ec6:	d807      	bhi.n	8004ed8 <_calloc_r+0x38>
 8004ec8:	f100 0308 	add.w	r3, r0, #8
 8004ecc:	2200      	movs	r2, #0
 8004ece:	601a      	str	r2, [r3, #0]
 8004ed0:	605a      	str	r2, [r3, #4]
 8004ed2:	609a      	str	r2, [r3, #8]
 8004ed4:	4620      	mov	r0, r4
 8004ed6:	bd10      	pop	{r4, pc}
 8004ed8:	2a24      	cmp	r2, #36	; 0x24
 8004eda:	6081      	str	r1, [r0, #8]
 8004edc:	60c1      	str	r1, [r0, #12]
 8004ede:	bf11      	iteee	ne
 8004ee0:	f100 0310 	addne.w	r3, r0, #16
 8004ee4:	6101      	streq	r1, [r0, #16]
 8004ee6:	f100 0318 	addeq.w	r3, r0, #24
 8004eea:	6141      	streq	r1, [r0, #20]
 8004eec:	e7ee      	b.n	8004ecc <_calloc_r+0x2c>
 8004eee:	4603      	mov	r3, r0
 8004ef0:	e7ec      	b.n	8004ecc <_calloc_r+0x2c>
 8004ef2:	2100      	movs	r1, #0
 8004ef4:	f000 f942 	bl	800517c <memset>
 8004ef8:	e7ec      	b.n	8004ed4 <_calloc_r+0x34>
	...

08004efc <_malloc_trim_r>:
 8004efc:	e92d 43f8 	stmdb	sp!, {r3, r4, r5, r6, r7, r8, r9, lr}
 8004f00:	4f25      	ldr	r7, [pc, #148]	; (8004f98 <_malloc_trim_r+0x9c>)
 8004f02:	f8df 80a0 	ldr.w	r8, [pc, #160]	; 8004fa4 <_malloc_trim_r+0xa8>
 8004f06:	4689      	mov	r9, r1
 8004f08:	4606      	mov	r6, r0
 8004f0a:	f7ff fc63 	bl	80047d4 <__malloc_lock>
 8004f0e:	68bb      	ldr	r3, [r7, #8]
 8004f10:	685d      	ldr	r5, [r3, #4]
 8004f12:	f1a8 0411 	sub.w	r4, r8, #17
 8004f16:	f025 0503 	bic.w	r5, r5, #3
 8004f1a:	eba4 0409 	sub.w	r4, r4, r9
 8004f1e:	442c      	add	r4, r5
 8004f20:	fbb4 f4f8 	udiv	r4, r4, r8
 8004f24:	3c01      	subs	r4, #1
 8004f26:	fb08 f404 	mul.w	r4, r8, r4
 8004f2a:	4544      	cmp	r4, r8
 8004f2c:	da05      	bge.n	8004f3a <_malloc_trim_r+0x3e>
 8004f2e:	4630      	mov	r0, r6
 8004f30:	f7ff fc56 	bl	80047e0 <__malloc_unlock>
 8004f34:	2000      	movs	r0, #0
 8004f36:	e8bd 83f8 	ldmia.w	sp!, {r3, r4, r5, r6, r7, r8, r9, pc}
 8004f3a:	2100      	movs	r1, #0
 8004f3c:	4630      	mov	r0, r6
 8004f3e:	f7ff ff25 	bl	8004d8c <_sbrk_r>
 8004f42:	68bb      	ldr	r3, [r7, #8]
 8004f44:	442b      	add	r3, r5
 8004f46:	4298      	cmp	r0, r3
 8004f48:	d1f1      	bne.n	8004f2e <_malloc_trim_r+0x32>
 8004f4a:	4261      	negs	r1, r4
 8004f4c:	4630      	mov	r0, r6
 8004f4e:	f7ff ff1d 	bl	8004d8c <_sbrk_r>
 8004f52:	3001      	adds	r0, #1
 8004f54:	d110      	bne.n	8004f78 <_malloc_trim_r+0x7c>
 8004f56:	2100      	movs	r1, #0
 8004f58:	4630      	mov	r0, r6
 8004f5a:	f7ff ff17 	bl	8004d8c <_sbrk_r>
 8004f5e:	68ba      	ldr	r2, [r7, #8]
 8004f60:	1a83      	subs	r3, r0, r2
 8004f62:	2b0f      	cmp	r3, #15
 8004f64:	dde3      	ble.n	8004f2e <_malloc_trim_r+0x32>
 8004f66:	490d      	ldr	r1, [pc, #52]	; (8004f9c <_malloc_trim_r+0xa0>)
 8004f68:	6809      	ldr	r1, [r1, #0]
 8004f6a:	1a40      	subs	r0, r0, r1
 8004f6c:	490c      	ldr	r1, [pc, #48]	; (8004fa0 <_malloc_trim_r+0xa4>)
 8004f6e:	f043 0301 	orr.w	r3, r3, #1
 8004f72:	6008      	str	r0, [r1, #0]
 8004f74:	6053      	str	r3, [r2, #4]
 8004f76:	e7da      	b.n	8004f2e <_malloc_trim_r+0x32>
 8004f78:	68bb      	ldr	r3, [r7, #8]
 8004f7a:	4a09      	ldr	r2, [pc, #36]	; (8004fa0 <_malloc_trim_r+0xa4>)
 8004f7c:	1b2d      	subs	r5, r5, r4
 8004f7e:	f045 0501 	orr.w	r5, r5, #1
 8004f82:	605d      	str	r5, [r3, #4]
 8004f84:	6813      	ldr	r3, [r2, #0]
 8004f86:	4630      	mov	r0, r6
 8004f88:	1b1c      	subs	r4, r3, r4
 8004f8a:	6014      	str	r4, [r2, #0]
 8004f8c:	f7ff fc28 	bl	80047e0 <__malloc_unlock>
 8004f90:	2001      	movs	r0, #1
 8004f92:	e8bd 83f8 	ldmia.w	sp!, {r3, r4, r5, r6, r7, r8, r9, pc}
 8004f96:	bf00      	nop
 8004f98:	20000190 	.word	0x20000190
 8004f9c:	20000598 	.word	0x20000598
 8004fa0:	20000734 	.word	0x20000734
 8004fa4:	00000080 	.word	0x00000080

08004fa8 <_free_r>:
 8004fa8:	e92d 41f0 	stmdb	sp!, {r4, r5, r6, r7, r8, lr}
 8004fac:	4604      	mov	r4, r0
 8004fae:	4688      	mov	r8, r1
 8004fb0:	2900      	cmp	r1, #0
 8004fb2:	f000 80ab 	beq.w	800510c <_free_r+0x164>
 8004fb6:	f7ff fc0d 	bl	80047d4 <__malloc_lock>
 8004fba:	f858 2c04 	ldr.w	r2, [r8, #-4]
 8004fbe:	4d54      	ldr	r5, [pc, #336]	; (8005110 <_free_r+0x168>)
 8004fc0:	f022 0001 	bic.w	r0, r2, #1
 8004fc4:	f1a8 0308 	sub.w	r3, r8, #8
 8004fc8:	181f      	adds	r7, r3, r0
 8004fca:	68a9      	ldr	r1, [r5, #8]
 8004fcc:	687e      	ldr	r6, [r7, #4]
 8004fce:	428f      	cmp	r7, r1
 8004fd0:	f026 0603 	bic.w	r6, r6, #3
 8004fd4:	f002 0201 	and.w	r2, r2, #1
 8004fd8:	d11b      	bne.n	8005012 <_free_r+0x6a>
 8004fda:	4430      	add	r0, r6
 8004fdc:	b93a      	cbnz	r2, 8004fee <_free_r+0x46>
 8004fde:	f858 2c08 	ldr.w	r2, [r8, #-8]
 8004fe2:	1a9b      	subs	r3, r3, r2
 8004fe4:	4410      	add	r0, r2
 8004fe6:	6899      	ldr	r1, [r3, #8]
 8004fe8:	68da      	ldr	r2, [r3, #12]
 8004fea:	60ca      	str	r2, [r1, #12]
 8004fec:	6091      	str	r1, [r2, #8]
 8004fee:	f040 0201 	orr.w	r2, r0, #1
 8004ff2:	605a      	str	r2, [r3, #4]
 8004ff4:	60ab      	str	r3, [r5, #8]
 8004ff6:	4b47      	ldr	r3, [pc, #284]	; (8005114 <_free_r+0x16c>)
 8004ff8:	681b      	ldr	r3, [r3, #0]
 8004ffa:	4298      	cmp	r0, r3
 8004ffc:	d304      	bcc.n	8005008 <_free_r+0x60>
 8004ffe:	4b46      	ldr	r3, [pc, #280]	; (8005118 <_free_r+0x170>)
 8005000:	4620      	mov	r0, r4
 8005002:	6819      	ldr	r1, [r3, #0]
 8005004:	f7ff ff7a 	bl	8004efc <_malloc_trim_r>
 8005008:	4620      	mov	r0, r4
 800500a:	e8bd 41f0 	ldmia.w	sp!, {r4, r5, r6, r7, r8, lr}
 800500e:	f7ff bbe7 	b.w	80047e0 <__malloc_unlock>
 8005012:	607e      	str	r6, [r7, #4]
 8005014:	2a00      	cmp	r2, #0
 8005016:	d139      	bne.n	800508c <_free_r+0xe4>
 8005018:	f858 1c08 	ldr.w	r1, [r8, #-8]
 800501c:	1a5b      	subs	r3, r3, r1
 800501e:	4408      	add	r0, r1
 8005020:	6899      	ldr	r1, [r3, #8]
 8005022:	f105 0e08 	add.w	lr, r5, #8
 8005026:	4571      	cmp	r1, lr
 8005028:	d032      	beq.n	8005090 <_free_r+0xe8>
 800502a:	f8d3 e00c 	ldr.w	lr, [r3, #12]
 800502e:	f8c1 e00c 	str.w	lr, [r1, #12]
 8005032:	f8ce 1008 	str.w	r1, [lr, #8]
 8005036:	19b9      	adds	r1, r7, r6
 8005038:	6849      	ldr	r1, [r1, #4]
 800503a:	07c9      	lsls	r1, r1, #31
 800503c:	d40a      	bmi.n	8005054 <_free_r+0xac>
 800503e:	4430      	add	r0, r6
 8005040:	68b9      	ldr	r1, [r7, #8]
 8005042:	bb3a      	cbnz	r2, 8005094 <_free_r+0xec>
 8005044:	4e35      	ldr	r6, [pc, #212]	; (800511c <_free_r+0x174>)
 8005046:	42b1      	cmp	r1, r6
 8005048:	d124      	bne.n	8005094 <_free_r+0xec>
 800504a:	616b      	str	r3, [r5, #20]
 800504c:	612b      	str	r3, [r5, #16]
 800504e:	2201      	movs	r2, #1
 8005050:	60d9      	str	r1, [r3, #12]
 8005052:	6099      	str	r1, [r3, #8]
 8005054:	f040 0101 	orr.w	r1, r0, #1
 8005058:	6059      	str	r1, [r3, #4]
 800505a:	5018      	str	r0, [r3, r0]
 800505c:	2a00      	cmp	r2, #0
 800505e:	d1d3      	bne.n	8005008 <_free_r+0x60>
 8005060:	f5b0 7f00 	cmp.w	r0, #512	; 0x200
 8005064:	d21a      	bcs.n	800509c <_free_r+0xf4>
 8005066:	08c0      	lsrs	r0, r0, #3
 8005068:	1081      	asrs	r1, r0, #2
 800506a:	2201      	movs	r2, #1
 800506c:	408a      	lsls	r2, r1
 800506e:	6869      	ldr	r1, [r5, #4]
 8005070:	3001      	adds	r0, #1
 8005072:	430a      	orrs	r2, r1
 8005074:	606a      	str	r2, [r5, #4]
 8005076:	eb05 02c0 	add.w	r2, r5, r0, lsl #3
 800507a:	f855 1030 	ldr.w	r1, [r5, r0, lsl #3]
 800507e:	6099      	str	r1, [r3, #8]
 8005080:	3a08      	subs	r2, #8
 8005082:	60da      	str	r2, [r3, #12]
 8005084:	f845 3030 	str.w	r3, [r5, r0, lsl #3]
 8005088:	60cb      	str	r3, [r1, #12]
 800508a:	e7bd      	b.n	8005008 <_free_r+0x60>
 800508c:	2200      	movs	r2, #0
 800508e:	e7d2      	b.n	8005036 <_free_r+0x8e>
 8005090:	2201      	movs	r2, #1
 8005092:	e7d0      	b.n	8005036 <_free_r+0x8e>
 8005094:	68fe      	ldr	r6, [r7, #12]
 8005096:	60ce      	str	r6, [r1, #12]
 8005098:	60b1      	str	r1, [r6, #8]
 800509a:	e7db      	b.n	8005054 <_free_r+0xac>
 800509c:	0a42      	lsrs	r2, r0, #9
 800509e:	2a04      	cmp	r2, #4
 80050a0:	d813      	bhi.n	80050ca <_free_r+0x122>
 80050a2:	0982      	lsrs	r2, r0, #6
 80050a4:	3238      	adds	r2, #56	; 0x38
 80050a6:	1c51      	adds	r1, r2, #1
 80050a8:	eb05 06c2 	add.w	r6, r5, r2, lsl #3
 80050ac:	f855 1031 	ldr.w	r1, [r5, r1, lsl #3]
 80050b0:	428e      	cmp	r6, r1
 80050b2:	d124      	bne.n	80050fe <_free_r+0x156>
 80050b4:	2001      	movs	r0, #1
 80050b6:	1092      	asrs	r2, r2, #2
 80050b8:	fa00 f202 	lsl.w	r2, r0, r2
 80050bc:	6868      	ldr	r0, [r5, #4]
 80050be:	4302      	orrs	r2, r0
 80050c0:	606a      	str	r2, [r5, #4]
 80050c2:	60de      	str	r6, [r3, #12]
 80050c4:	6099      	str	r1, [r3, #8]
 80050c6:	60b3      	str	r3, [r6, #8]
 80050c8:	e7de      	b.n	8005088 <_free_r+0xe0>
 80050ca:	2a14      	cmp	r2, #20
 80050cc:	d801      	bhi.n	80050d2 <_free_r+0x12a>
 80050ce:	325b      	adds	r2, #91	; 0x5b
 80050d0:	e7e9      	b.n	80050a6 <_free_r+0xfe>
 80050d2:	2a54      	cmp	r2, #84	; 0x54
 80050d4:	d802      	bhi.n	80050dc <_free_r+0x134>
 80050d6:	0b02      	lsrs	r2, r0, #12
 80050d8:	326e      	adds	r2, #110	; 0x6e
 80050da:	e7e4      	b.n	80050a6 <_free_r+0xfe>
 80050dc:	f5b2 7faa 	cmp.w	r2, #340	; 0x154
 80050e0:	d802      	bhi.n	80050e8 <_free_r+0x140>
 80050e2:	0bc2      	lsrs	r2, r0, #15
 80050e4:	3277      	adds	r2, #119	; 0x77
 80050e6:	e7de      	b.n	80050a6 <_free_r+0xfe>
 80050e8:	f240 5154 	movw	r1, #1364	; 0x554
 80050ec:	428a      	cmp	r2, r1
 80050ee:	bf9a      	itte	ls
 80050f0:	0c82      	lsrls	r2, r0, #18
 80050f2:	327c      	addls	r2, #124	; 0x7c
 80050f4:	227e      	movhi	r2, #126	; 0x7e
 80050f6:	e7d6      	b.n	80050a6 <_free_r+0xfe>
 80050f8:	6889      	ldr	r1, [r1, #8]
 80050fa:	428e      	cmp	r6, r1
 80050fc:	d004      	beq.n	8005108 <_free_r+0x160>
 80050fe:	684a      	ldr	r2, [r1, #4]
 8005100:	f022 0203 	bic.w	r2, r2, #3
 8005104:	4290      	cmp	r0, r2
 8005106:	d3f7      	bcc.n	80050f8 <_free_r+0x150>
 8005108:	68ce      	ldr	r6, [r1, #12]
 800510a:	e7da      	b.n	80050c2 <_free_r+0x11a>
 800510c:	e8bd 81f0 	ldmia.w	sp!, {r4, r5, r6, r7, r8, pc}
 8005110:	20000190 	.word	0x20000190
 8005114:	2000059c 	.word	0x2000059c
 8005118:	20000764 	.word	0x20000764
 800511c:	20000198 	.word	0x20000198

08005120 <__retarget_lock_acquire_recursive>:
 8005120:	4770      	bx	lr

08005122 <__retarget_lock_release_recursive>:
 8005122:	4770      	bx	lr

08005124 <__ascii_mbtowc>:
 8005124:	b082      	sub	sp, #8
 8005126:	b901      	cbnz	r1, 800512a <__ascii_mbtowc+0x6>
 8005128:	a901      	add	r1, sp, #4
 800512a:	b142      	cbz	r2, 800513e <__ascii_mbtowc+0x1a>
 800512c:	b14b      	cbz	r3, 8005142 <__ascii_mbtowc+0x1e>
 800512e:	7813      	ldrb	r3, [r2, #0]
 8005130:	600b      	str	r3, [r1, #0]
 8005132:	7812      	ldrb	r2, [r2, #0]
 8005134:	1c10      	adds	r0, r2, #0
 8005136:	bf18      	it	ne
 8005138:	2001      	movne	r0, #1
 800513a:	b002      	add	sp, #8
 800513c:	4770      	bx	lr
 800513e:	4610      	mov	r0, r2
 8005140:	e7fb      	b.n	800513a <__ascii_mbtowc+0x16>
 8005142:	f06f 0001 	mvn.w	r0, #1
 8005146:	e7f8      	b.n	800513a <__ascii_mbtowc+0x16>

08005148 <memmove>:
 8005148:	4288      	cmp	r0, r1
 800514a:	b510      	push	{r4, lr}
 800514c:	eb01 0302 	add.w	r3, r1, r2
 8005150:	d803      	bhi.n	800515a <memmove+0x12>
 8005152:	1e42      	subs	r2, r0, #1
 8005154:	4299      	cmp	r1, r3
 8005156:	d10c      	bne.n	8005172 <memmove+0x2a>
 8005158:	bd10      	pop	{r4, pc}
 800515a:	4298      	cmp	r0, r3
 800515c:	d2f9      	bcs.n	8005152 <memmove+0xa>
 800515e:	1881      	adds	r1, r0, r2
 8005160:	1ad2      	subs	r2, r2, r3
 8005162:	42d3      	cmn	r3, r2
 8005164:	d100      	bne.n	8005168 <memmove+0x20>
 8005166:	bd10      	pop	{r4, pc}
 8005168:	f813 4d01 	ldrb.w	r4, [r3, #-1]!
 800516c:	f801 4d01 	strb.w	r4, [r1, #-1]!
 8005170:	e7f7      	b.n	8005162 <memmove+0x1a>
 8005172:	f811 4b01 	ldrb.w	r4, [r1], #1
 8005176:	f802 4f01 	strb.w	r4, [r2, #1]!
 800517a:	e7eb      	b.n	8005154 <memmove+0xc>

0800517c <memset>:
 800517c:	4402      	add	r2, r0
 800517e:	4603      	mov	r3, r0
 8005180:	4293      	cmp	r3, r2
 8005182:	d100      	bne.n	8005186 <memset+0xa>
 8005184:	4770      	bx	lr
 8005186:	f803 1b01 	strb.w	r1, [r3], #1
 800518a:	e7f9      	b.n	8005180 <memset+0x4>

0800518c <_realloc_r>:
 800518c:	e92d 4ff7 	stmdb	sp!, {r0, r1, r2, r4, r5, r6, r7, r8, r9, sl, fp, lr}
 8005190:	4682      	mov	sl, r0
 8005192:	460c      	mov	r4, r1
 8005194:	b929      	cbnz	r1, 80051a2 <_realloc_r+0x16>
 8005196:	4611      	mov	r1, r2
 8005198:	b003      	add	sp, #12
 800519a:	e8bd 4ff0 	ldmia.w	sp!, {r4, r5, r6, r7, r8, r9, sl, fp, lr}
 800519e:	f7ff b8ff 	b.w	80043a0 <_malloc_r>
 80051a2:	9201      	str	r2, [sp, #4]
 80051a4:	f7ff fb16 	bl	80047d4 <__malloc_lock>
 80051a8:	9a01      	ldr	r2, [sp, #4]
 80051aa:	f854 5c04 	ldr.w	r5, [r4, #-4]
 80051ae:	f102 080b 	add.w	r8, r2, #11
 80051b2:	f1b8 0f16 	cmp.w	r8, #22
 80051b6:	f1a4 0908 	sub.w	r9, r4, #8
 80051ba:	f025 0603 	bic.w	r6, r5, #3
 80051be:	d90a      	bls.n	80051d6 <_realloc_r+0x4a>
 80051c0:	f038 0807 	bics.w	r8, r8, #7
 80051c4:	d509      	bpl.n	80051da <_realloc_r+0x4e>
 80051c6:	230c      	movs	r3, #12
 80051c8:	f8ca 3000 	str.w	r3, [sl]
 80051cc:	2700      	movs	r7, #0
 80051ce:	4638      	mov	r0, r7
 80051d0:	b003      	add	sp, #12
 80051d2:	e8bd 8ff0 	ldmia.w	sp!, {r4, r5, r6, r7, r8, r9, sl, fp, pc}
 80051d6:	f04f 0810 	mov.w	r8, #16
 80051da:	4590      	cmp	r8, r2
 80051dc:	d3f3      	bcc.n	80051c6 <_realloc_r+0x3a>
 80051de:	45b0      	cmp	r8, r6
 80051e0:	f340 8145 	ble.w	800546e <_realloc_r+0x2e2>
 80051e4:	4ba8      	ldr	r3, [pc, #672]	; (8005488 <_realloc_r+0x2fc>)
 80051e6:	f8d3 e008 	ldr.w	lr, [r3, #8]
 80051ea:	eb09 0106 	add.w	r1, r9, r6
 80051ee:	4571      	cmp	r1, lr
 80051f0:	469b      	mov	fp, r3
 80051f2:	684b      	ldr	r3, [r1, #4]
 80051f4:	d005      	beq.n	8005202 <_realloc_r+0x76>
 80051f6:	f023 0001 	bic.w	r0, r3, #1
 80051fa:	4408      	add	r0, r1
 80051fc:	6840      	ldr	r0, [r0, #4]
 80051fe:	07c7      	lsls	r7, r0, #31
 8005200:	d447      	bmi.n	8005292 <_realloc_r+0x106>
 8005202:	f023 0303 	bic.w	r3, r3, #3
 8005206:	4571      	cmp	r1, lr
 8005208:	eb06 0703 	add.w	r7, r6, r3
 800520c:	d119      	bne.n	8005242 <_realloc_r+0xb6>
 800520e:	f108 0010 	add.w	r0, r8, #16
 8005212:	4287      	cmp	r7, r0
 8005214:	db3f      	blt.n	8005296 <_realloc_r+0x10a>
 8005216:	eb09 0308 	add.w	r3, r9, r8
 800521a:	eba7 0708 	sub.w	r7, r7, r8
 800521e:	f047 0701 	orr.w	r7, r7, #1
 8005222:	f8cb 3008 	str.w	r3, [fp, #8]
 8005226:	605f      	str	r7, [r3, #4]
 8005228:	f854 3c04 	ldr.w	r3, [r4, #-4]
 800522c:	f003 0301 	and.w	r3, r3, #1
 8005230:	ea43 0308 	orr.w	r3, r3, r8
 8005234:	f844 3c04 	str.w	r3, [r4, #-4]
 8005238:	4650      	mov	r0, sl
 800523a:	f7ff fad1 	bl	80047e0 <__malloc_unlock>
 800523e:	4627      	mov	r7, r4
 8005240:	e7c5      	b.n	80051ce <_realloc_r+0x42>
 8005242:	45b8      	cmp	r8, r7
 8005244:	dc27      	bgt.n	8005296 <_realloc_r+0x10a>
 8005246:	68cb      	ldr	r3, [r1, #12]
 8005248:	688a      	ldr	r2, [r1, #8]
 800524a:	60d3      	str	r3, [r2, #12]
 800524c:	609a      	str	r2, [r3, #8]
 800524e:	eba7 0008 	sub.w	r0, r7, r8
 8005252:	280f      	cmp	r0, #15
 8005254:	f8d9 3004 	ldr.w	r3, [r9, #4]
 8005258:	eb09 0207 	add.w	r2, r9, r7
 800525c:	f240 8109 	bls.w	8005472 <_realloc_r+0x2e6>
 8005260:	eb09 0108 	add.w	r1, r9, r8
 8005264:	f003 0301 	and.w	r3, r3, #1
 8005268:	ea43 0308 	orr.w	r3, r3, r8
 800526c:	f040 0001 	orr.w	r0, r0, #1
 8005270:	f8c9 3004 	str.w	r3, [r9, #4]
 8005274:	6048      	str	r0, [r1, #4]
 8005276:	6853      	ldr	r3, [r2, #4]
 8005278:	f043 0301 	orr.w	r3, r3, #1
 800527c:	6053      	str	r3, [r2, #4]
 800527e:	3108      	adds	r1, #8
 8005280:	4650      	mov	r0, sl
 8005282:	f7ff fe91 	bl	8004fa8 <_free_r>
 8005286:	4650      	mov	r0, sl
 8005288:	f7ff faaa 	bl	80047e0 <__malloc_unlock>
 800528c:	f109 0708 	add.w	r7, r9, #8
 8005290:	e79d      	b.n	80051ce <_realloc_r+0x42>
 8005292:	2300      	movs	r3, #0
 8005294:	4619      	mov	r1, r3
 8005296:	07e8      	lsls	r0, r5, #31
 8005298:	f100 8084 	bmi.w	80053a4 <_realloc_r+0x218>
 800529c:	f854 5c08 	ldr.w	r5, [r4, #-8]
 80052a0:	eba9 0505 	sub.w	r5, r9, r5
 80052a4:	6868      	ldr	r0, [r5, #4]
 80052a6:	f020 0003 	bic.w	r0, r0, #3
 80052aa:	4430      	add	r0, r6
 80052ac:	2900      	cmp	r1, #0
 80052ae:	d076      	beq.n	800539e <_realloc_r+0x212>
 80052b0:	4571      	cmp	r1, lr
 80052b2:	d150      	bne.n	8005356 <_realloc_r+0x1ca>
 80052b4:	4403      	add	r3, r0
 80052b6:	f108 0110 	add.w	r1, r8, #16
 80052ba:	428b      	cmp	r3, r1
 80052bc:	db6f      	blt.n	800539e <_realloc_r+0x212>
 80052be:	462f      	mov	r7, r5
 80052c0:	68ea      	ldr	r2, [r5, #12]
 80052c2:	f857 1f08 	ldr.w	r1, [r7, #8]!
 80052c6:	60ca      	str	r2, [r1, #12]
 80052c8:	6091      	str	r1, [r2, #8]
 80052ca:	1f32      	subs	r2, r6, #4
 80052cc:	2a24      	cmp	r2, #36	; 0x24
 80052ce:	d83b      	bhi.n	8005348 <_realloc_r+0x1bc>
 80052d0:	2a13      	cmp	r2, #19
 80052d2:	d936      	bls.n	8005342 <_realloc_r+0x1b6>
 80052d4:	6821      	ldr	r1, [r4, #0]
 80052d6:	60a9      	str	r1, [r5, #8]
 80052d8:	6861      	ldr	r1, [r4, #4]
 80052da:	60e9      	str	r1, [r5, #12]
 80052dc:	2a1b      	cmp	r2, #27
 80052de:	d81c      	bhi.n	800531a <_realloc_r+0x18e>
 80052e0:	f105 0210 	add.w	r2, r5, #16
 80052e4:	f104 0108 	add.w	r1, r4, #8
 80052e8:	6808      	ldr	r0, [r1, #0]
 80052ea:	6010      	str	r0, [r2, #0]
 80052ec:	6848      	ldr	r0, [r1, #4]
 80052ee:	6050      	str	r0, [r2, #4]
 80052f0:	6889      	ldr	r1, [r1, #8]
 80052f2:	6091      	str	r1, [r2, #8]
 80052f4:	eb05 0208 	add.w	r2, r5, r8
 80052f8:	eba3 0308 	sub.w	r3, r3, r8
 80052fc:	f043 0301 	orr.w	r3, r3, #1
 8005300:	f8cb 2008 	str.w	r2, [fp, #8]
 8005304:	6053      	str	r3, [r2, #4]
 8005306:	686b      	ldr	r3, [r5, #4]
 8005308:	f003 0301 	and.w	r3, r3, #1
 800530c:	ea43 0308 	orr.w	r3, r3, r8
 8005310:	606b      	str	r3, [r5, #4]
 8005312:	4650      	mov	r0, sl
 8005314:	f7ff fa64 	bl	80047e0 <__malloc_unlock>
 8005318:	e759      	b.n	80051ce <_realloc_r+0x42>
 800531a:	68a1      	ldr	r1, [r4, #8]
 800531c:	6129      	str	r1, [r5, #16]
 800531e:	68e1      	ldr	r1, [r4, #12]
 8005320:	6169      	str	r1, [r5, #20]
 8005322:	2a24      	cmp	r2, #36	; 0x24
 8005324:	bf01      	itttt	eq
 8005326:	6922      	ldreq	r2, [r4, #16]
 8005328:	61aa      	streq	r2, [r5, #24]
 800532a:	6960      	ldreq	r0, [r4, #20]
 800532c:	61e8      	streq	r0, [r5, #28]
 800532e:	bf19      	ittee	ne
 8005330:	f105 0218 	addne.w	r2, r5, #24
 8005334:	f104 0110 	addne.w	r1, r4, #16
 8005338:	f105 0220 	addeq.w	r2, r5, #32
 800533c:	f104 0118 	addeq.w	r1, r4, #24
 8005340:	e7d2      	b.n	80052e8 <_realloc_r+0x15c>
 8005342:	463a      	mov	r2, r7
 8005344:	4621      	mov	r1, r4
 8005346:	e7cf      	b.n	80052e8 <_realloc_r+0x15c>
 8005348:	4621      	mov	r1, r4
 800534a:	4638      	mov	r0, r7
 800534c:	9301      	str	r3, [sp, #4]
 800534e:	f7ff fefb 	bl	8005148 <memmove>
 8005352:	9b01      	ldr	r3, [sp, #4]
 8005354:	e7ce      	b.n	80052f4 <_realloc_r+0x168>
 8005356:	18c7      	adds	r7, r0, r3
 8005358:	45b8      	cmp	r8, r7
 800535a:	dc20      	bgt.n	800539e <_realloc_r+0x212>
 800535c:	68cb      	ldr	r3, [r1, #12]
 800535e:	688a      	ldr	r2, [r1, #8]
 8005360:	60d3      	str	r3, [r2, #12]
 8005362:	609a      	str	r2, [r3, #8]
 8005364:	4628      	mov	r0, r5
 8005366:	68eb      	ldr	r3, [r5, #12]
 8005368:	f850 2f08 	ldr.w	r2, [r0, #8]!
 800536c:	60d3      	str	r3, [r2, #12]
 800536e:	609a      	str	r2, [r3, #8]
 8005370:	1f32      	subs	r2, r6, #4
 8005372:	2a24      	cmp	r2, #36	; 0x24
 8005374:	d842      	bhi.n	80053fc <_realloc_r+0x270>
 8005376:	2a13      	cmp	r2, #19
 8005378:	d93e      	bls.n	80053f8 <_realloc_r+0x26c>
 800537a:	6823      	ldr	r3, [r4, #0]
 800537c:	60ab      	str	r3, [r5, #8]
 800537e:	6863      	ldr	r3, [r4, #4]
 8005380:	60eb      	str	r3, [r5, #12]
 8005382:	2a1b      	cmp	r2, #27
 8005384:	d824      	bhi.n	80053d0 <_realloc_r+0x244>
 8005386:	f105 0010 	add.w	r0, r5, #16
 800538a:	f104 0308 	add.w	r3, r4, #8
 800538e:	681a      	ldr	r2, [r3, #0]
 8005390:	6002      	str	r2, [r0, #0]
 8005392:	685a      	ldr	r2, [r3, #4]
 8005394:	6042      	str	r2, [r0, #4]
 8005396:	689b      	ldr	r3, [r3, #8]
 8005398:	6083      	str	r3, [r0, #8]
 800539a:	46a9      	mov	r9, r5
 800539c:	e757      	b.n	800524e <_realloc_r+0xc2>
 800539e:	4580      	cmp	r8, r0
 80053a0:	4607      	mov	r7, r0
 80053a2:	dddf      	ble.n	8005364 <_realloc_r+0x1d8>
 80053a4:	4611      	mov	r1, r2
 80053a6:	4650      	mov	r0, sl
 80053a8:	f7fe fffa 	bl	80043a0 <_malloc_r>
 80053ac:	4607      	mov	r7, r0
 80053ae:	2800      	cmp	r0, #0
 80053b0:	d0af      	beq.n	8005312 <_realloc_r+0x186>
 80053b2:	f854 3c04 	ldr.w	r3, [r4, #-4]
 80053b6:	f023 0301 	bic.w	r3, r3, #1
 80053ba:	f1a0 0208 	sub.w	r2, r0, #8
 80053be:	444b      	add	r3, r9
 80053c0:	429a      	cmp	r2, r3
 80053c2:	d11f      	bne.n	8005404 <_realloc_r+0x278>
 80053c4:	f850 7c04 	ldr.w	r7, [r0, #-4]
 80053c8:	f027 0703 	bic.w	r7, r7, #3
 80053cc:	4437      	add	r7, r6
 80053ce:	e73e      	b.n	800524e <_realloc_r+0xc2>
 80053d0:	68a3      	ldr	r3, [r4, #8]
 80053d2:	612b      	str	r3, [r5, #16]
 80053d4:	68e3      	ldr	r3, [r4, #12]
 80053d6:	616b      	str	r3, [r5, #20]
 80053d8:	2a24      	cmp	r2, #36	; 0x24
 80053da:	bf01      	itttt	eq
 80053dc:	6923      	ldreq	r3, [r4, #16]
 80053de:	61ab      	streq	r3, [r5, #24]
 80053e0:	6962      	ldreq	r2, [r4, #20]
 80053e2:	61ea      	streq	r2, [r5, #28]
 80053e4:	bf19      	ittee	ne
 80053e6:	f105 0018 	addne.w	r0, r5, #24
 80053ea:	f104 0310 	addne.w	r3, r4, #16
 80053ee:	f105 0020 	addeq.w	r0, r5, #32
 80053f2:	f104 0318 	addeq.w	r3, r4, #24
 80053f6:	e7ca      	b.n	800538e <_realloc_r+0x202>
 80053f8:	4623      	mov	r3, r4
 80053fa:	e7c8      	b.n	800538e <_realloc_r+0x202>
 80053fc:	4621      	mov	r1, r4
 80053fe:	f7ff fea3 	bl	8005148 <memmove>
 8005402:	e7ca      	b.n	800539a <_realloc_r+0x20e>
 8005404:	1f32      	subs	r2, r6, #4
 8005406:	2a24      	cmp	r2, #36	; 0x24
 8005408:	d82d      	bhi.n	8005466 <_realloc_r+0x2da>
 800540a:	2a13      	cmp	r2, #19
 800540c:	d928      	bls.n	8005460 <_realloc_r+0x2d4>
 800540e:	6823      	ldr	r3, [r4, #0]
 8005410:	6003      	str	r3, [r0, #0]
 8005412:	6863      	ldr	r3, [r4, #4]
 8005414:	6043      	str	r3, [r0, #4]
 8005416:	2a1b      	cmp	r2, #27
 8005418:	d80e      	bhi.n	8005438 <_realloc_r+0x2ac>
 800541a:	f100 0308 	add.w	r3, r0, #8
 800541e:	f104 0208 	add.w	r2, r4, #8
 8005422:	6811      	ldr	r1, [r2, #0]
 8005424:	6019      	str	r1, [r3, #0]
 8005426:	6851      	ldr	r1, [r2, #4]
 8005428:	6059      	str	r1, [r3, #4]
 800542a:	6892      	ldr	r2, [r2, #8]
 800542c:	609a      	str	r2, [r3, #8]
 800542e:	4621      	mov	r1, r4
 8005430:	4650      	mov	r0, sl
 8005432:	f7ff fdb9 	bl	8004fa8 <_free_r>
 8005436:	e76c      	b.n	8005312 <_realloc_r+0x186>
 8005438:	68a3      	ldr	r3, [r4, #8]
 800543a:	6083      	str	r3, [r0, #8]
 800543c:	68e3      	ldr	r3, [r4, #12]
 800543e:	60c3      	str	r3, [r0, #12]
 8005440:	2a24      	cmp	r2, #36	; 0x24
 8005442:	bf01      	itttt	eq
 8005444:	6923      	ldreq	r3, [r4, #16]
 8005446:	6103      	streq	r3, [r0, #16]
 8005448:	6961      	ldreq	r1, [r4, #20]
 800544a:	6141      	streq	r1, [r0, #20]
 800544c:	bf19      	ittee	ne
 800544e:	f100 0310 	addne.w	r3, r0, #16
 8005452:	f104 0210 	addne.w	r2, r4, #16
 8005456:	f100 0318 	addeq.w	r3, r0, #24
 800545a:	f104 0218 	addeq.w	r2, r4, #24
 800545e:	e7e0      	b.n	8005422 <_realloc_r+0x296>
 8005460:	4603      	mov	r3, r0
 8005462:	4622      	mov	r2, r4
 8005464:	e7dd      	b.n	8005422 <_realloc_r+0x296>
 8005466:	4621      	mov	r1, r4
 8005468:	f7ff fe6e 	bl	8005148 <memmove>
 800546c:	e7df      	b.n	800542e <_realloc_r+0x2a2>
 800546e:	4637      	mov	r7, r6
 8005470:	e6ed      	b.n	800524e <_realloc_r+0xc2>
 8005472:	f003 0301 	and.w	r3, r3, #1
 8005476:	431f      	orrs	r7, r3
 8005478:	f8c9 7004 	str.w	r7, [r9, #4]
 800547c:	6853      	ldr	r3, [r2, #4]
 800547e:	f043 0301 	orr.w	r3, r3, #1
 8005482:	6053      	str	r3, [r2, #4]
 8005484:	e6ff      	b.n	8005286 <_realloc_r+0xfa>
 8005486:	bf00      	nop
 8005488:	20000190 	.word	0x20000190

0800548c <__ascii_wctomb>:
 800548c:	b149      	cbz	r1, 80054a2 <__ascii_wctomb+0x16>
 800548e:	2aff      	cmp	r2, #255	; 0xff
 8005490:	bf85      	ittet	hi
 8005492:	238a      	movhi	r3, #138	; 0x8a
 8005494:	6003      	strhi	r3, [r0, #0]
 8005496:	700a      	strbls	r2, [r1, #0]
 8005498:	f04f 30ff 	movhi.w	r0, #4294967295	; 0xffffffff
 800549c:	bf98      	it	ls
 800549e:	2001      	movls	r0, #1
 80054a0:	4770      	bx	lr
 80054a2:	4608      	mov	r0, r1
 80054a4:	4770      	bx	lr
	...

080054a8 <_sbrk>:
 80054a8:	4b04      	ldr	r3, [pc, #16]	; (80054bc <_sbrk+0x14>)
 80054aa:	6819      	ldr	r1, [r3, #0]
 80054ac:	4602      	mov	r2, r0
 80054ae:	b909      	cbnz	r1, 80054b4 <_sbrk+0xc>
 80054b0:	4903      	ldr	r1, [pc, #12]	; (80054c0 <_sbrk+0x18>)
 80054b2:	6019      	str	r1, [r3, #0]
 80054b4:	6818      	ldr	r0, [r3, #0]
 80054b6:	4402      	add	r2, r0
 80054b8:	601a      	str	r2, [r3, #0]
 80054ba:	4770      	bx	lr
 80054bc:	20000768 	.word	0x20000768
 80054c0:	2000079c 	.word	0x2000079c

080054c4 <_init>:
 80054c4:	b5f8      	push	{r3, r4, r5, r6, r7, lr}
 80054c6:	bf00      	nop
 80054c8:	bcf8      	pop	{r3, r4, r5, r6, r7}
 80054ca:	bc08      	pop	{r3}
 80054cc:	469e      	mov	lr, r3
 80054ce:	4770      	bx	lr

080054d0 <_fini>:
 80054d0:	b5f8      	push	{r3, r4, r5, r6, r7, lr}
 80054d2:	bf00      	nop
 80054d4:	bcf8      	pop	{r3, r4, r5, r6, r7}
 80054d6:	bc08      	pop	{r3}
 80054d8:	469e      	mov	lr, r3
 80054da:	4770      	bx	lr
